
sobel.elf:     file format elf32-littlenios2
sobel.elf
architecture: nios2:r1, flags 0x00000112:
EXEC_P, HAS_SYMS, D_PAGED
start address 0x00000244

Program Header:
    LOAD off    0x00001000 vaddr 0x00000000 paddr 0x00000000 align 2**12
         filesz 0x00000020 memsz 0x00000020 flags r-x
    LOAD off    0x00001020 vaddr 0x00000020 paddr 0x00000020 align 2**12
         filesz 0x00011c4c memsz 0x00011c4c flags r-x
    LOAD off    0x00012c6c vaddr 0x00011c6c paddr 0x00013858 align 2**12
         filesz 0x00001bec memsz 0x00001bec flags rw-
    LOAD off    0x00015444 vaddr 0x00015444 paddr 0x00015444 align 2**12
         filesz 0x00000000 memsz 0x000001b0 flags rw-

Sections:
Idx Name          Size      VMA       LMA       File off  Algn
  0 .entry        00000020  00000000  00000000  00001000  2**5
                  CONTENTS, ALLOC, LOAD, READONLY, CODE
  1 .exceptions   00000224  00000020  00000020  00001020  2**2
                  CONTENTS, ALLOC, LOAD, READONLY, CODE
  2 .text         00011280  00000244  00000244  00001244  2**2
                  CONTENTS, ALLOC, LOAD, READONLY, CODE
  3 .rodata       000007a8  000114c4  000114c4  000124c4  2**2
                  CONTENTS, ALLOC, LOAD, READONLY, DATA
  4 .rwdata       00001bec  00011c6c  00013858  00012c6c  2**2
                  CONTENTS, ALLOC, LOAD, DATA, SMALL_DATA
  5 .bss          000001b0  00015444  00015444  00015444  2**2
                  ALLOC, SMALL_DATA
  6 .sdram_ctrl   00000000  000155f4  000155f4  00014858  2**0
                  CONTENTS
  7 .comment      00000023  00000000  00000000  00014858  2**0
                  CONTENTS, READONLY
  8 .debug_aranges 000010d0  00000000  00000000  00014880  2**3
                  CONTENTS, READONLY, DEBUGGING
  9 .debug_info   00027f71  00000000  00000000  00015950  2**0
                  CONTENTS, READONLY, DEBUGGING
 10 .debug_abbrev 0000a106  00000000  00000000  0003d8c1  2**0
                  CONTENTS, READONLY, DEBUGGING
 11 .debug_line   0000c9c0  00000000  00000000  000479c7  2**0
                  CONTENTS, READONLY, DEBUGGING
 12 .debug_frame  000025d4  00000000  00000000  00054388  2**2
                  CONTENTS, READONLY, DEBUGGING
 13 .debug_str    00003e80  00000000  00000000  0005695c  2**0
                  CONTENTS, READONLY, DEBUGGING
 14 .debug_loc    00018cdf  00000000  00000000  0005a7dc  2**0
                  CONTENTS, READONLY, DEBUGGING
 15 .debug_alt_sim_info 00000060  00000000  00000000  000734bc  2**2
                  CONTENTS, READONLY, DEBUGGING
 16 .debug_ranges 000019a0  00000000  00000000  00073520  2**3
                  CONTENTS, READONLY, DEBUGGING
 17 .thread_model 00000003  00000000  00000000  000789e6  2**0
                  CONTENTS, READONLY
 18 .cpu          0000000c  00000000  00000000  000789e9  2**0
                  CONTENTS, READONLY
 19 .qsys         00000001  00000000  00000000  000789f5  2**0
                  CONTENTS, READONLY
 20 .simulation_enabled 00000001  00000000  00000000  000789f6  2**0
                  CONTENTS, READONLY
 21 .sysid_hash   00000004  00000000  00000000  000789f7  2**0
                  CONTENTS, READONLY
 22 .sysid_base   00000004  00000000  00000000  000789fb  2**0
                  CONTENTS, READONLY
 23 .sysid_time   00000004  00000000  00000000  000789ff  2**0
                  CONTENTS, READONLY
 24 .stderr_dev   00000009  00000000  00000000  00078a03  2**0
                  CONTENTS, READONLY
 25 .stdin_dev    00000009  00000000  00000000  00078a0c  2**0
                  CONTENTS, READONLY
 26 .stdout_dev   00000009  00000000  00000000  00078a15  2**0
                  CONTENTS, READONLY
 27 .sopc_system_name 0000000b  00000000  00000000  00078a1e  2**0
                  CONTENTS, READONLY
 28 .quartus_project_dir 00000038  00000000  00000000  00078a29  2**0
                  CONTENTS, READONLY
 29 .jdi          00005ad8  00000000  00000000  00078a61  2**0
                  CONTENTS, READONLY
 30 .sopcinfo     0007a5fe  00000000  00000000  0007e539  2**0
                  CONTENTS, READONLY
SYMBOL TABLE:
00000000 l    d  .entry	00000000 .entry
00000020 l    d  .exceptions	00000000 .exceptions
00000244 l    d  .text	00000000 .text
000114c4 l    d  .rodata	00000000 .rodata
00011c6c l    d  .rwdata	00000000 .rwdata
00015444 l    d  .bss	00000000 .bss
000155f4 l    d  .sdram_ctrl	00000000 .sdram_ctrl
00000000 l    d  .comment	00000000 .comment
00000000 l    d  .debug_aranges	00000000 .debug_aranges
00000000 l    d  .debug_info	00000000 .debug_info
00000000 l    d  .debug_abbrev	00000000 .debug_abbrev
00000000 l    d  .debug_line	00000000 .debug_line
00000000 l    d  .debug_frame	00000000 .debug_frame
00000000 l    d  .debug_str	00000000 .debug_str
00000000 l    d  .debug_loc	00000000 .debug_loc
00000000 l    d  .debug_alt_sim_info	00000000 .debug_alt_sim_info
00000000 l    d  .debug_ranges	00000000 .debug_ranges
00000000 l    df *ABS*	00000000 D:/projects/intelFPGA/intelFPGA_mse_demo/sobel_bsp//obj/HAL/src/crt0.o
0000028c l       .text	00000000 alt_after_alt_main
00000000 l    df *ABS*	00000000 alt_irq_handler.c
00000000 l    df *ABS*	00000000 alt_instruction_exception_entry.c
00000000 l    df *ABS*	00000000 camera.c
00000000 l    df *ABS*	00000000 dipswitch.c
00000000 l    df *ABS*	00000000 grayscale.c
00000000 l    df *ABS*	00000000 i2c.c
00000000 l    df *ABS*	00000000 lcd_simple.c
00000000 l    df *ABS*	00000000 main.c
00000000 l    df *ABS*	00000000 sobel.c
00000000 l    df *ABS*	00000000 sobel_all.c
00000000 l    df *ABS*	00000000 vga.c
00000000 l    df *ABS*	00000000 lib2-divmod.c
00000000 l    df *ABS*	00000000 lib2-divtable.c
00000000 l    df *ABS*	00000000 divdf3.c
00000000 l    df *ABS*	00000000 floatunsidf.c
00000000 l    df *ABS*	00000000 libgcc2.c
00000000 l    df *ABS*	00000000 libgcc2.c
00000000 l    df *ABS*	00000000 malloc.c
00000000 l    df *ABS*	00000000 mallocr.c
00000000 l    df *ABS*	00000000 printf.c
00000000 l    df *ABS*	00000000 puts.c
00000000 l    df *ABS*	00000000 sbrkr.c
00000000 l    df *ABS*	00000000 strlen.c
00000000 l    df *ABS*	00000000 vfprintf.c
00011aba l     O .rodata	00000010 zeroes.4404
00005690 l     F .text	000000bc __sbprintf
00011aca l     O .rodata	00000010 blanks.4403
00000000 l    df *ABS*	00000000 wsetup.c
00000000 l    df *ABS*	00000000 dtoa.c
000058a0 l     F .text	00000200 quorem
00000000 l    df *ABS*	00000000 fflush.c
00000000 l    df *ABS*	00000000 findfp.c
000073d0 l     F .text	00000008 __fp_unlock
000073e4 l     F .text	0000019c __sinit.part.1
00007580 l     F .text	00000008 __fp_lock
00000000 l    df *ABS*	00000000 mallocr.c
00000000 l    df *ABS*	00000000 fvwrite.c
00000000 l    df *ABS*	00000000 fwalk.c
00000000 l    df *ABS*	00000000 impure.c
00012174 l     O .rwdata	00000424 impure_data
00000000 l    df *ABS*	00000000 int_errno.c
00000000 l    df *ABS*	00000000 locale.c
000125b8 l     O .rwdata	00000020 lc_ctype_charset
00012598 l     O .rwdata	00000020 lc_message_charset
000125d8 l     O .rwdata	00000038 lconv
00000000 l    df *ABS*	00000000 makebuf.c
00000000 l    df *ABS*	00000000 memchr.c
00000000 l    df *ABS*	00000000 memcpy.c
00000000 l    df *ABS*	00000000 memmove.c
00000000 l    df *ABS*	00000000 memset.c
00000000 l    df *ABS*	00000000 mprec.c
00011afc l     O .rodata	0000000c p05.2768
00000000 l    df *ABS*	00000000 mallocr.c
00000000 l    df *ABS*	00000000 s_fpclassify.c
00000000 l    df *ABS*	00000000 stdio.c
00000000 l    df *ABS*	00000000 strcmp.c
00000000 l    df *ABS*	00000000 vfprintf.c
0000a11c l     F .text	000000fc __sprint_r.part.0
00011c30 l     O .rodata	00000010 blanks.4348
00011c20 l     O .rodata	00000010 zeroes.4349
0000b6a8 l     F .text	000000bc __sbprintf
00000000 l    df *ABS*	00000000 writer.c
00000000 l    df *ABS*	00000000 closer.c
00000000 l    df *ABS*	00000000 mallocr.c
00000000 l    df *ABS*	00000000 fclose.c
00000000 l    df *ABS*	00000000 fputwc.c
00000000 l    df *ABS*	00000000 fstatr.c
00000000 l    df *ABS*	00000000 isattyr.c
00000000 l    df *ABS*	00000000 lseekr.c
00000000 l    df *ABS*	00000000 readr.c
00000000 l    df *ABS*	00000000 wbuf.c
00000000 l    df *ABS*	00000000 wcrtomb.c
00000000 l    df *ABS*	00000000 wctomb_r.c
00000000 l    df *ABS*	00000000 libgcc2.c
00000000 l    df *ABS*	00000000 libgcc2.c
00000000 l    df *ABS*	00000000 adddf3.c
00000000 l    df *ABS*	00000000 eqdf2.c
00000000 l    df *ABS*	00000000 gedf2.c
00000000 l    df *ABS*	00000000 ledf2.c
00000000 l    df *ABS*	00000000 muldf3.c
00000000 l    df *ABS*	00000000 subdf3.c
00000000 l    df *ABS*	00000000 fixdfsi.c
00000000 l    df *ABS*	00000000 floatsidf.c
00000000 l    df *ABS*	00000000 alt_close.c
0000e7bc l     F .text	0000003c alt_get_errno
00000000 l    df *ABS*	00000000 alt_dev.c
0000e8c8 l     F .text	0000002c alt_dev_null_write
00000000 l    df *ABS*	00000000 alt_errno.c
00000000 l    df *ABS*	00000000 alt_fstat.c
0000e8f4 l     F .text	0000003c alt_get_errno
00000000 l    df *ABS*	00000000 alt_isatty.c
0000e9e0 l     F .text	0000003c alt_get_errno
00000000 l    df *ABS*	00000000 alt_load.c
0000eac0 l     F .text	00000068 alt_load_section
00000000 l    df *ABS*	00000000 alt_lseek.c
0000ebac l     F .text	0000003c alt_get_errno
00000000 l    df *ABS*	00000000 alt_main.c
00000000 l    df *ABS*	00000000 alt_malloc_lock.c
00000000 l    df *ABS*	00000000 alt_read.c
0000ed80 l     F .text	0000003c alt_get_errno
00000000 l    df *ABS*	00000000 alt_release_fd.c
00000000 l    df *ABS*	00000000 alt_sbrk.c
00013848 l     O .rwdata	00000004 heap_end
00000000 l    df *ABS*	00000000 alt_uncached_malloc.c
00000000 l    df *ABS*	00000000 alt_usleep.c
00000000 l    df *ABS*	00000000 alt_write.c
0000f074 l     F .text	0000003c alt_get_errno
00000000 l    df *ABS*	00000000 alt_sys_init.c
0000f1a8 l     F .text	00000034 alt_dev_reg
000127b8 l     O .rwdata	00001060 jtag_uart
00000000 l    df *ABS*	00000000 altera_avalon_jtag_uart_fd.c
00000000 l    df *ABS*	00000000 altera_avalon_jtag_uart_init.c
0000f4b4 l     F .text	0000020c altera_avalon_jtag_uart_irq
0000f6c0 l     F .text	000000a0 altera_avalon_jtag_uart_timeout
00000000 l    df *ABS*	00000000 altera_avalon_jtag_uart_ioctl.c
00000000 l    df *ABS*	00000000 altera_avalon_jtag_uart_read.c
00000000 l    df *ABS*	00000000 altera_avalon_jtag_uart_write.c
00000000 l    df *ABS*	00000000 altera_avalon_timer_sc.c
0000fcf8 l     F .text	00000078 alt_avalon_timer_sc_irq
00000000 l    df *ABS*	00000000 altera_avalon_timer_ts.c
00000000 l    df *ABS*	00000000 altera_avalon_timer_vars.c
00000000 l    df *ABS*	00000000 alt_alarm_start.c
00000000 l    df *ABS*	00000000 alt_busy_sleep.c
00000000 l    df *ABS*	00000000 alt_dcache_flush.c
00000000 l    df *ABS*	00000000 alt_dcache_flush_all.c
00000000 l    df *ABS*	00000000 alt_dev_llist_insert.c
00010248 l     F .text	0000003c alt_get_errno
00000000 l    df *ABS*	00000000 alt_do_ctors.c
00000000 l    df *ABS*	00000000 alt_do_dtors.c
00000000 l    df *ABS*	00000000 alt_icache_flush_all.c
00000000 l    df *ABS*	00000000 alt_iic.c
00000000 l    df *ABS*	00000000 alt_iic_isr_register.c
00000000 l    df *ABS*	00000000 alt_io_redirect.c
000106bc l     F .text	000000c4 alt_open_fd
00000000 l    df *ABS*	00000000 alt_irq_vars.c
00000000 l    df *ABS*	00000000 alt_open.c
000107fc l     F .text	0000003c alt_get_errno
00010838 l     F .text	000000c4 alt_file_locked
00000000 l    df *ABS*	00000000 alt_tick.c
00000000 l    df *ABS*	00000000 altera_nios2_gen2_irq.c
00000000 l    df *ABS*	00000000 alt_find_dev.c
00000000 l    df *ABS*	00000000 alt_find_file.c
00000000 l    df *ABS*	00000000 alt_get_fd.c
00000000 l    df *ABS*	00000000 alt_icache_flush.c
00000000 l    df *ABS*	00000000 atexit.c
00000000 l    df *ABS*	00000000 exit.c
00000000 l    df *ABS*	00000000 malign.c
00000000 l    df *ABS*	00000000 mallocr.c
00000000 l    df *ABS*	00000000 memcmp.c
00000000 l    df *ABS*	00000000 __atexit.c
00000000 l    df *ABS*	00000000 __call_atexit.c
00000000 l    df *ABS*	00000000 alt_exit.c
000154c8 g     O .bss	00000004 alt_instruction_exception_handler
000097b4 g     F .text	00000074 _mprec_log10
000098a0 g     F .text	0000008c __any_on
0000bc44 g     F .text	00000054 _isatty_r
00011b08 g     O .rodata	00000028 __mprec_tinytens
0000ecbc g     F .text	0000007c alt_main
000032bc g     F .text	000000c0 _puts_r
000154f4 g     O .bss	00000100 alt_irq
0000bc98 g     F .text	00000060 _lseek_r
00013858 g       *ABS*	00000000 __flash_rwdata_start
0000d3f4 g     F .text	00000088 .hidden __eqdf2
000155f4 g       *ABS*	00000000 __alt_heap_start
00003280 g     F .text	0000003c printf
0000beb0 g     F .text	0000009c _wcrtomb_r
00009fdc g     F .text	0000005c __sseek
00007720 g     F .text	00000010 __sinit
0000bd58 g     F .text	00000140 __swbuf_r
000081e8 g     F .text	0000007c _setlocale_r
00007588 g     F .text	00000068 __sfmoreglue
0000ed5c g     F .text	00000024 __malloc_unlock
00001060 g     F .text	00000014 LCD_Write_Command
00015480 g     O .bss	00000004 sobel_width
0001546c g     O .bss	00000004 start_all
000154b8 g     O .bss	00000004 altera_avalon_timer_ts_freq
000086ac g     F .text	0000015c memmove
00001074 g     F .text	00000014 LCD_Write_Data
00007708 g     F .text	00000018 _cleanup
00015478 g     O .bss	00000004 end_sobel
00008930 g     F .text	000000a8 _Balloc
0000d47c g     F .text	000000dc .hidden __gtdf2
00010bf4 g     F .text	00000024 altera_nios2_gen2_irq_init
00000000 g     F .entry	0000001c __reset
00000020 g       *ABS*	00000000 __flash_exceptions_start
0000088c g     F .text	00000024 cam_get_xsize
0000bbe8 g     F .text	0000005c _fstat_r
00015498 g     O .bss	00000004 errno
00009f58 g     F .text	00000008 __seofread
000154ac g     O .bss	00000004 alt_argv
0001b818 g       *ABS*	00000000 _gp
0000f044 g     F .text	00000030 usleep
0000efcc g     F .text	00000078 alt_uncached_malloc
0000094c g     F .text	00000074 cam_set_image_pointer
00012638 g     O .rwdata	00000180 alt_fd_list
00001e54 g     F .text	00000010 vga_set_pointer
00010c18 g     F .text	00000090 alt_find_dev
00008564 g     F .text	00000148 memcpy
000073d8 g     F .text	0000000c _cleanup_r
0000e6e0 g     F .text	000000dc .hidden __floatsidf
00010780 g     F .text	0000007c alt_io_redirect
00015468 g     O .bss	00000004 end_all
0000d558 g     F .text	000000f4 .hidden __ltdf2
000114c4 g       *ABS*	00000000 __DTOR_END__
0000337c g     F .text	00000014 puts
00010ee4 g     F .text	0000009c alt_exception_cause_generated_bad_addr
00009e90 g     F .text	00000074 __fpclassifyd
00009710 g     F .text	000000a4 __ratio
0000b68c g     F .text	0000001c __vfiprintf_internal
0000f8b8 g     F .text	0000021c altera_avalon_jtag_uart_read
00002a1c g     F .text	00000014 malloc
00003250 g     F .text	00000030 _printf_r
00000ce4 g     F .text	00000008 get_grayscale_picture
00001f6c g     F .text	00000064 .hidden __udivsi3
00011524 g     O .rodata	00000128 lens_roll_off_tbl
00000290 g     F .text	000005fc init_camera
0000ea1c g     F .text	000000a4 isatty
00011b58 g     O .rodata	000000c8 __mprec_tens
00008264 g     F .text	0000000c __locale_charset
00010e54 g     F .text	00000090 alt_icache_flush
00015494 g     O .bss	00000004 __malloc_top_pad
00015454 g     O .bss	00000004 grayscale_array_int
00013828 g     O .rwdata	00000004 __mb_cur_max
00008294 g     F .text	0000000c _localeconv_r
00008d3c g     F .text	0000003c __i2b
00007ba4 g     F .text	000004bc __sfvwrite_r
00001088 g     F .text	00000408 init_LCD
00003390 g     F .text	00000054 _sbrk_r
000008d4 g     F .text	00000078 cam_get_profiling
0000bcf8 g     F .text	00000060 _read_r
00010188 g     F .text	00000078 alt_dcache_flush
00015484 g     O .bss	00000004 sobel_result
00013840 g     O .rwdata	00000004 alt_max_fd
0000b8dc g     F .text	000000f0 _fclose_r
000073a0 g     F .text	00000030 fflush
00015490 g     O .bss	00000004 __malloc_max_sbrked_mem
00015444 g     O .bss	00000004 size_int
00015458 g     O .bss	00000004 grayscale_array
0000cb48 g     F .text	000008ac .hidden __adddf3
000008b0 g     F .text	00000024 cam_get_ysize
000094b8 g     F .text	0000010c __b2d
0000c610 g     F .text	00000538 .hidden __umoddi3
0000ebe8 g     F .text	000000d4 lseek
00000f7c g     F .text	0000008c i2c_short_read
00013820 g     O .rwdata	00000004 _global_impure_ptr
0000992c g     F .text	00000564 _realloc_r
000155f4 g       *ABS*	00000000 __bss_end
000105cc g     F .text	000000f0 alt_iic_isr_register
00010aec g     F .text	00000108 alt_tick
0000c098 g     F .text	00000578 .hidden __udivdi3
0000bb44 g     F .text	00000024 _fputwc_r
00011b30 g     O .rodata	00000028 __mprec_bigtens
00008b20 g     F .text	00000104 __s2b
00002910 g     F .text	000000a8 .hidden __floatunsidf
000091f8 g     F .text	00000060 __mcmp
00007740 g     F .text	00000018 __fp_lock_all
00010580 g     F .text	0000004c alt_ic_irq_enabled
00015448 g     O .bss	00000004 grayscape_height
00010a50 g     F .text	0000009c alt_alarm_stop
000154bc g     O .bss	00000004 alt_irq_active
000000fc g     F .exceptions	000000d4 alt_irq_handler
00012610 g     O .rwdata	00000028 alt_dev_null
000016a0 g     F .text	00000078 transfer_LCD_with_dma
00001c0c g     F .text	00000248 sobel_complete
00010200 g     F .text	00000048 alt_dcache_flush_all
00008c24 g     F .text	00000068 __hi0bits
0000e660 g     F .text	00000080 .hidden __fixdfsi
00013858 g       *ABS*	00000000 __ram_rwdata_end
00013838 g     O .rwdata	00000008 alt_dev_list
0000f0b0 g     F .text	000000f8 write
0000fee4 g     F .text	00000020 alt_timestamp_freq
00011c6c g       *ABS*	00000000 __ram_rodata_end
0000e930 g     F .text	000000b0 fstat
0000d558 g     F .text	000000f4 .hidden __ledf2
00008f70 g     F .text	00000140 __pow5mult
0000a230 g     F .text	0000145c ___vfiprintf_internal_r
000154a4 g     O .bss	00000004 __nlocale_changed
00001fd0 g     F .text	00000058 .hidden __umodsi3
00000c54 g     F .text	00000080 conv_grayscale_init
000155f4 g       *ABS*	00000000 end
00001a78 g     F .text	00000008 GetSobelResult
000009e4 g     F .text	00000020 take_picture_blocking
00000a44 g     F .text	00000014 DIPSW_get_value
0000f3f4 g     F .text	000000c0 altera_avalon_jtag_uart_init
000001d0 g     F .exceptions	00000074 alt_instruction_exception_entry
000009d4 g     F .text	00000010 current_image_pointer
000114c4 g       *ABS*	00000000 __CTOR_LIST__
01000000 g       *ABS*	00000000 __alt_stack_pointer
0000fd70 g     F .text	0000007c alt_avalon_timer_sc_init
000029b8 g     F .text	00000064 .hidden __clzsi2
0000fad4 g     F .text	00000224 altera_avalon_jtag_uart_write
00007730 g     F .text	00000004 __sfp_lock_acquire
00008480 g     F .text	000000e4 memchr
0000347c g     F .text	000021f8 ___vfprintf_internal_r
00007894 g     F .text	00000310 _free_r
00008270 g     F .text	00000010 __locale_mb_cur_max
0001164c g     O .rodata	00000140 noise_reduction_reg_settings_array
00011310 g     F .text	00000180 __call_exitprocs
000154a0 g     O .bss	00000004 __mlocale_changed
00013818 g     O .rwdata	00000004 __malloc_sbrk_base
00000244 g     F .text	0000004c _start
00015470 g     O .bss	00000004 end_conv_grayscale
000154c0 g     O .bss	00000004 _alt_tick_rate
000090b0 g     F .text	00000148 __lshift
000154c4 g     O .bss	00000004 _alt_nticks
0000edbc g     F .text	000000fc read
0000f214 g     F .text	0000007c alt_sys_init
000111f8 g     F .text	00000118 __register_exitproc
00008d78 g     F .text	000001f8 __multiply
0000f760 g     F .text	00000068 altera_avalon_jtag_uart_close
00011c6c g       *ABS*	00000000 __ram_rwdata_start
000114c4 g       *ABS*	00000000 __ram_rodata_start
000154cc g     O .bss	00000028 __malloc_current_mallinfo
000095c4 g     F .text	0000014c __d2b
00015488 g     O .bss	00000004 sobel_height
00015450 g     O .bss	00000004 grayscale_width_int
00000a04 g     F .text	00000014 enable_continues_mode
0000f290 g     F .text	00000060 altera_avalon_jtag_uart_read_fd
00001a80 g     F .text	0000018c init_sobel_arrays
00010db0 g     F .text	000000a4 alt_get_fd
00010030 g     F .text	00000158 alt_busy_sleep
00000000 g       *ABS*	00000000 __alt_mem_sdram_ctrl
0000b7c4 g     F .text	00000054 _close_r
0001117c g     F .text	0000007c memcmp
0000f350 g     F .text	00000050 altera_avalon_jtag_uart_close_fd
000155f4 g       *ABS*	00000000 __alt_stack_base
0000f3a0 g     F .text	00000054 altera_avalon_jtag_uart_ioctl_fd
0000574c g     F .text	00000154 __swsetup_r
00002028 g     F .text	000008e8 .hidden __divdf3
000075f0 g     F .text	00000118 __sfp
00009828 g     F .text	00000078 __copybits
00011d6c g     O .rwdata	00000408 __malloc_av_
0000773c g     F .text	00000004 __sinit_lock_release
0000d64c g     F .text	00000718 .hidden __muldf3
00009f04 g     F .text	00000054 __sread
00010ca8 g     F .text	00000108 alt_find_file
00010284 g     F .text	000000a4 alt_dev_llist_insert
0000ed38 g     F .text	00000024 __malloc_lock
0000ef1c g     F .text	000000b0 sbrk
00007344 g     F .text	0000005c _fflush_r
0000b818 g     F .text	000000c4 _calloc_r
00015464 g     O .bss	00000004 start_global
00011c6c g     O .rwdata	00000100 .hidden __divsi3_table
00015444 g       *ABS*	00000000 __bss_start
00008808 g     F .text	00000128 memset
00001718 g     F .text	00000360 main
000154b0 g     O .bss	00000004 alt_envp
0001548c g     O .bss	00000004 __malloc_max_total_mem
00000cd4 g     F .text	00000008 get_grayscale_width
0000f2f0 g     F .text	00000060 altera_avalon_jtag_uart_write_fd
0000be98 g     F .text	00000018 __swbuf
0000a038 g     F .text	00000008 __sclose
01000000 g       *ABS*	00000000 __alt_heap_limit
0000b9cc g     F .text	00000014 fclose
0000fdec g     F .text	00000078 alt_timestamp_start
00005aa0 g     F .text	00001688 _dtoa_r
00002a44 g     F .text	0000080c _malloc_r
0000c00c g     F .text	00000030 __ascii_wctomb
00013844 g     O .rwdata	00000004 alt_errno
00008060 g     F .text	000000c4 _fwalk
0001547c g     O .bss	00000004 start_sobel
00001e74 g     F .text	00000084 .hidden __divsi3
00007770 g     F .text	00000124 _malloc_trim_r
000114c4 g       *ABS*	00000000 __CTOR_END__
0001544c g     O .bss	00000004 grayscale_width
0000a040 g     F .text	000000dc strcmp
00001490 g     F .text	00000210 transfer_LCD_no_dma
000114c4 g       *ABS*	00000000 __flash_rodata_start
000114c4 g       *ABS*	00000000 __DTOR_LIST__
0000d3f4 g     F .text	00000088 .hidden __nedf2
0001178c g     O .rodata	00000118 preview_snapshot_mode_reg_settings_array
0000f1dc g     F .text	00000038 alt_irq_init
0000eeb8 g     F .text	00000064 alt_release_fd
00000d04 g     F .text	00000278 i2c_auto_detect
00010fcc g     F .text	00000018 memalign
00011978 g     O .rodata	00000100 .hidden __clz_tab
000009c0 g     F .text	00000014 current_image_valid
0001549c g     O .bss	00000004 _PathLocale
00000cec g     F .text	00000018 i2c_busy_wait
00010f80 g     F .text	00000014 atexit
0000b764 g     F .text	00000060 _write_r
000082a0 g     F .text	00000018 setlocale
00013824 g     O .rwdata	00000004 _impure_ptr
000154a8 g     O .bss	00000004 alt_argc
00007128 g     F .text	0000021c __sflush_r
000154b4 g     O .bss	00000004 altera_avalon_timer_ts_base
00010388 g     F .text	00000060 _do_dtors
0000828c g     F .text	00000008 __locale_cjk_lang
00000020 g       .exceptions	00000000 alt_irq_entry
00009454 g     F .text	00000064 __ulp
00007758 g     F .text	00000018 __fp_unlock_all
00013830 g     O .rwdata	00000008 alt_fs_list
00001008 g     F .text	00000058 i2c_short_write
00015474 g     O .bss	00000004 start_conv_grayscale
00000020 g       *ABS*	00000000 __ram_exceptions_start
0001545c g     O .bss	00000002 LCD_height
000082b8 g     F .text	0000000c localeconv
0000fe64 g     F .text	00000080 alt_timestamp
00001e64 g     F .text	00000010 vga_set_swap
0001041c g     F .text	00000050 alt_ic_isr_register
00013858 g       *ABS*	00000000 _edata
000155f4 g       *ABS*	00000000 _end
0000b9e0 g     F .text	00000164 __fputwc
00000244 g       *ABS*	00000000 __ram_exceptions_end
0000f7c8 g     F .text	000000f0 altera_avalon_jtag_uart_ioctl
000104f4 g     F .text	0000008c alt_ic_irq_disable
00009f60 g     F .text	0000007c __swrite
0001381c g     O .rwdata	00000004 __malloc_trim_threshold
0001545e g     O .bss	00000002 LCD_width
00000a58 g     F .text	000001fc conv_grayscale
00008280 g     F .text	0000000c __locale_msgcharset
00010f94 g     F .text	00000038 exit
00008124 g     F .text	000000c4 _fwalk_reent
00009258 g     F .text	000001fc __mdiff
00001ef8 g     F .text	00000074 .hidden __modsi3
00010fe4 g     F .text	00000198 _memalign_r
01000000 g       *ABS*	00000000 __alt_data_end
00000020 g     F .exceptions	00000000 alt_exception
00007734 g     F .text	00000004 __sfp_lock_release
00000cdc g     F .text	00000008 get_grayscale_height
00011490 g     F .text	00000034 _exit
0000ff04 g     F .text	0000012c alt_alarm_start
000082c4 g     F .text	000001bc __smakebuf_r
000033e4 g     F .text	00000098 strlen
000108fc g     F .text	00000154 open
0000d47c g     F .text	000000dc .hidden __gedf2
0001382c g     O .rwdata	00000004 __wctomb
0000a218 g     F .text	00000018 __sprint_r
000103e8 g     F .text	00000034 alt_icache_flush_all
0001384c g     O .rwdata	00000004 alt_priority_mask
0001046c g     F .text	00000088 alt_ic_irq_enable
00005674 g     F .text	0000001c __vfprintf_internal
0000c03c g     F .text	0000005c _wctomb_r
0000dd64 g     F .text	000008fc .hidden __subdf3
00008c8c g     F .text	000000b0 __lo0bits
00013850 g     O .rwdata	00000008 alt_alarm_list
00010328 g     F .text	00000060 _do_ctors
0000bf4c g     F .text	000000c0 wcrtomb
0000e7f8 g     F .text	000000d0 close
00015460 g     O .bss	00000004 end_global
0000eb28 g     F .text	00000084 alt_load
0000bb68 g     F .text	00000080 fputwc
00002a30 g     F .text	00000014 free
00007738 g     F .text	00000004 __sinit_lock_acquire
00008a00 g     F .text	00000120 __multadd
000089d8 g     F .text	00000028 _Bfree
00000a18 g     F .text	0000002c new_image_available



Disassembly of section .entry:

00000000 <__reset>:
#if NIOS2_ICACHE_SIZE > 0 && defined(ALT_ALLOW_CODE_AT_RESET) && (!defined(ALT_SIM_OPTIMIZE) || defined(NIOS2_ECC_PRESENT))
    /* Assume the instruction cache size is always a power of two. */
#if NIOS2_ICACHE_SIZE > 0x8000
    movhi r2, %hi(NIOS2_ICACHE_SIZE)
#else
    movui r2, NIOS2_ICACHE_SIZE
   0:	00840014 	movui	r2,4096
#endif

0:
    initi r2
   4:	1001483a 	initi	r2
    addi r2, r2, -NIOS2_ICACHE_LINE_SIZE
   8:	10bff804 	addi	r2,r2,-32
    bgt r2, zero, 0b
   c:	00bffd16 	blt	zero,r2,4 <__alt_data_end+0xff000004>
 * Jump to the _start entry point in the .text section if reset code
 * is allowed or if optimizing for RTL simulation.
 */
#if defined(ALT_ALLOW_CODE_AT_RESET) || defined(ALT_SIM_OPTIMIZE)
    /* Jump to the _start entry point in the .text section. */
    movhi r1, %hi(_start)
  10:	00400034 	movhi	at,0
    ori r1, r1, %lo(_start)
  14:	08409114 	ori	at,at,580
    jmp r1
  18:	0800683a 	jmp	at
  1c:	00000000 	call	0 <__reset>

Disassembly of section .exceptions:

00000020 <alt_exception>:

#else /* ALT_EXCEPTION_STACK disabled */
        /* 
         * Reserve space on normal stack for registers about to be pushed.
         */
        addi  sp, sp, -76
  20:	deffed04 	addi	sp,sp,-76
         * documentation for details).
         *
         * Leave a gap in the stack frame at 4(sp) for the muldiv handler to
         * store zero into.
         */
        stw   ra,  0(sp)
  24:	dfc00015 	stw	ra,0(sp)
        stw   r1,   8(sp)
  28:	d8400215 	stw	at,8(sp)
        stw   r2,  12(sp)
  2c:	d8800315 	stw	r2,12(sp)
        stw   r3,  16(sp)
  30:	d8c00415 	stw	r3,16(sp)
        stw   r4,  20(sp)
  34:	d9000515 	stw	r4,20(sp)
        stw   r5,  24(sp)
  38:	d9400615 	stw	r5,24(sp)
        stw   r6,  28(sp)
  3c:	d9800715 	stw	r6,28(sp)
        stw   r7,  32(sp)
  40:	d9c00815 	stw	r7,32(sp)
        rdctl r5, estatus   /* Read early to avoid usage stall */
  44:	000b307a 	rdctl	r5,estatus
        stw   r8,  36(sp)
  48:	da000915 	stw	r8,36(sp)
        stw   r9,  40(sp)
  4c:	da400a15 	stw	r9,40(sp)
        stw   r10, 44(sp)
  50:	da800b15 	stw	r10,44(sp)
        stw   r11, 48(sp)
  54:	dac00c15 	stw	r11,48(sp)
        stw   r12, 52(sp)
  58:	db000d15 	stw	r12,52(sp)
        stw   r13, 56(sp)
  5c:	db400e15 	stw	r13,56(sp)
        stw   r14, 60(sp)
  60:	db800f15 	stw	r14,60(sp)
        stw   r15, 64(sp)
  64:	dbc01015 	stw	r15,64(sp)
        /*
         * ea-4 contains the address of the instruction being executed
         * when the exception occured. For interrupt exceptions, we will
         * will be re-issue the isntruction. Store it in 72(sp)
         */
        stw   r5,  68(sp)  /* estatus */
  68:	d9401115 	stw	r5,68(sp)
        addi  r15, ea, -4  /* instruction that caused exception */
  6c:	ebffff04 	addi	r15,ea,-4
        stw   r15,  72(sp)
  70:	dbc01215 	stw	r15,72(sp)
#else
        /*
         * Test to see if the exception was a software exception or caused 
         * by an external interrupt, and vector accordingly.
         */
        rdctl r4, ipending
  74:	0009313a 	rdctl	r4,ipending
        andi  r2, r5, 1
  78:	2880004c 	andi	r2,r5,1
        beq   r2, zero, .Lnot_irq
  7c:	10000326 	beq	r2,zero,8c <alt_exception+0x6c>
        beq   r4, zero, .Lnot_irq
  80:	20000226 	beq	r4,zero,8c <alt_exception+0x6c>
        /*
         * Now that all necessary registers have been preserved, call 
         * alt_irq_handler() to process the interrupts.
         */

        call alt_irq_handler
  84:	00000fc0 	call	fc <alt_irq_handler>

        .section .exceptions.irqreturn, "xa"

        br    .Lexception_exit
  88:	00000706 	br	a8 <alt_exception+0x88>
         * upon completion, so we write ea (address of instruction *after*
         * the one where the exception occured) into 72(sp). The actual
         * instruction that caused the exception is written in r2, which these
         * handlers will utilize.
         */
        stw ea, 72(sp) /* EA is PC+4 so will skip over instruction causing exception */
  8c:	df401215 	stw	ea,72(sp)
.Lunknown_16bit:
        addi.n r4, r4, 2 /* Need PC+2 to skip over instruction causing exception */
        stw r4, 72(sp)

#else /* CDX is not Enabled and all instructions are 32bits */
        ldw r2, -4(ea) /* Instruction value that caused exception */
  90:	e8bfff17 	ldw	r2,-4(ea)
         * debugger is present) or go into an infinite loop since the
         * handling behavior is undefined; in that case we will not return here.
         */

        /* Load exception-causing address as first argument (r4) */
        addi   r4, ea, -4
  94:	e93fff04 	addi	r4,ea,-4

        /* Call the instruction-exception entry */
        call   alt_instruction_exception_entry
  98:	00001d00 	call	1d0 <alt_instruction_exception_entry>
         * instruction
         *
         * Return code was 0: Skip. The instruction after the exception is
         * already stored in 72(sp).
         */
        bne   r2, r0, .Lexception_exit
  9c:	1000021e 	bne	r2,zero,a8 <alt_exception+0x88>

        /*
         * Otherwise, modify 72(sp) to re-issue the instruction that caused the
         * exception.
         */
        addi  r15, ea, -4  /* instruction that caused exception */
  a0:	ebffff04 	addi	r15,ea,-4
        stw   r15,  72(sp)
  a4:	dbc01215 	stw	r15,72(sp)
        /* 
         * Restore the saved registers, so that all general purpose registers 
         * have been restored to their state at the time the interrupt occured.
         */

        ldw   r5,  68(sp)
  a8:	d9401117 	ldw	r5,68(sp)
        ldw   ea,  72(sp)  /* This becomes the PC once eret is executed */
  ac:	df401217 	ldw	ea,72(sp)
        ldw   ra,   0(sp)
  b0:	dfc00017 	ldw	ra,0(sp)

        wrctl estatus, r5
  b4:	2801707a 	wrctl	estatus,r5

        ldw   r1,   8(sp)
  b8:	d8400217 	ldw	at,8(sp)
        ldw   r2,  12(sp)
  bc:	d8800317 	ldw	r2,12(sp)
        ldw   r3,  16(sp)
  c0:	d8c00417 	ldw	r3,16(sp)
        ldw   r4,  20(sp)
  c4:	d9000517 	ldw	r4,20(sp)
        ldw   r5,  24(sp)
  c8:	d9400617 	ldw	r5,24(sp)
        ldw   r6,  28(sp)
  cc:	d9800717 	ldw	r6,28(sp)
        ldw   r7,  32(sp)
  d0:	d9c00817 	ldw	r7,32(sp)

#if defined(ALT_EXCEPTION_STACK) && defined(ALT_STACK_CHECK)
        ldw   et, %gprel(alt_exception_old_stack_limit)(gp)
#endif

        ldw   r8,  36(sp)
  d4:	da000917 	ldw	r8,36(sp)
        ldw   r9,  40(sp)
  d8:	da400a17 	ldw	r9,40(sp)
        ldw   r10, 44(sp)
  dc:	da800b17 	ldw	r10,44(sp)
        ldw   r11, 48(sp)
  e0:	dac00c17 	ldw	r11,48(sp)
        ldw   r12, 52(sp)
  e4:	db000d17 	ldw	r12,52(sp)
        ldw   r13, 56(sp)
  e8:	db400e17 	ldw	r13,56(sp)
        ldw   r14, 60(sp)
  ec:	db800f17 	ldw	r14,60(sp)
        ldw   r15, 64(sp)
  f0:	dbc01017 	ldw	r15,64(sp)
        stw   et, %gprel(alt_stack_limit_value)(gp)
        stw   zero, %gprel(alt_exception_old_stack_limit)(gp)
#endif /* ALT_STACK_CHECK */
        ldw   sp,  76(sp)
#else /* ALT_EXCEPTION_STACK disabled */
        addi  sp, sp, 76
  f4:	dec01304 	addi	sp,sp,76

        /*
         * Return to the interrupted instruction.
         */

        eret
  f8:	ef80083a 	eret

000000fc <alt_irq_handler>:
 * instruction is present if the macro ALT_CI_INTERRUPT_VECTOR defined.
 */

void alt_irq_handler (void) __attribute__ ((section (".exceptions")));
void alt_irq_handler (void)
{
  fc:	defff904 	addi	sp,sp,-28
 100:	dfc00615 	stw	ra,24(sp)
 104:	df000515 	stw	fp,20(sp)
 108:	df000504 	addi	fp,sp,20
  
  /*
   * Notify the operating system that we are at interrupt level.
   */ 
  
  ALT_OS_INT_ENTER();
 10c:	0001883a 	nop
#ifndef NIOS2_EIC_PRESENT
static ALT_INLINE alt_u32 ALT_ALWAYS_INLINE alt_irq_pending (void)
{
  alt_u32 active;

  NIOS2_READ_IPENDING (active);
 110:	0005313a 	rdctl	r2,ipending
 114:	e0bffe15 	stw	r2,-8(fp)

  return active;
 118:	e0bffe17 	ldw	r2,-8(fp)
   * Consider the case where the high priority interupt is asserted during
   * the interrupt entry sequence for a lower priority interrupt to see why
   * this is the case.
   */

  active = alt_irq_pending ();
 11c:	e0bffb15 	stw	r2,-20(fp)

  do
  {
    i = 0;
 120:	e03ffd15 	stw	zero,-12(fp)
    mask = 1;
 124:	00800044 	movi	r2,1
 128:	e0bffc15 	stw	r2,-16(fp)
     * called to clear the interrupt condition.
     */

    do
    {
      if (active & mask)
 12c:	e0fffb17 	ldw	r3,-20(fp)
 130:	e0bffc17 	ldw	r2,-16(fp)
 134:	1884703a 	and	r2,r3,r2
 138:	10001426 	beq	r2,zero,18c <alt_irq_handler+0x90>
      { 
#ifdef ALT_ENHANCED_INTERRUPT_API_PRESENT
        alt_irq[i].handler(alt_irq[i].context); 
 13c:	00800074 	movhi	r2,1
 140:	10953d04 	addi	r2,r2,21748
 144:	e0fffd17 	ldw	r3,-12(fp)
 148:	180690fa 	slli	r3,r3,3
 14c:	10c5883a 	add	r2,r2,r3
 150:	10c00017 	ldw	r3,0(r2)
 154:	00800074 	movhi	r2,1
 158:	10953d04 	addi	r2,r2,21748
 15c:	e13ffd17 	ldw	r4,-12(fp)
 160:	200890fa 	slli	r4,r4,3
 164:	1105883a 	add	r2,r2,r4
 168:	10800104 	addi	r2,r2,4
 16c:	10800017 	ldw	r2,0(r2)
 170:	1009883a 	mov	r4,r2
 174:	183ee83a 	callr	r3
#else
        alt_irq[i].handler(alt_irq[i].context, i); 
#endif
        break;
 178:	0001883a 	nop
#ifndef NIOS2_EIC_PRESENT
static ALT_INLINE alt_u32 ALT_ALWAYS_INLINE alt_irq_pending (void)
{
  alt_u32 active;

  NIOS2_READ_IPENDING (active);
 17c:	0005313a 	rdctl	r2,ipending
 180:	e0bfff15 	stw	r2,-4(fp)

  return active;
 184:	e0bfff17 	ldw	r2,-4(fp)
 188:	00000706 	br	1a8 <alt_irq_handler+0xac>
      }
      mask <<= 1;
 18c:	e0bffc17 	ldw	r2,-16(fp)
 190:	1085883a 	add	r2,r2,r2
 194:	e0bffc15 	stw	r2,-16(fp)
      i++;
 198:	e0bffd17 	ldw	r2,-12(fp)
 19c:	10800044 	addi	r2,r2,1
 1a0:	e0bffd15 	stw	r2,-12(fp)

    } while (1);
 1a4:	003fe106 	br	12c <__alt_data_end+0xff00012c>

    active = alt_irq_pending ();
 1a8:	e0bffb15 	stw	r2,-20(fp)
    
  } while (active);
 1ac:	e0bffb17 	ldw	r2,-20(fp)
 1b0:	103fdb1e 	bne	r2,zero,120 <__alt_data_end+0xff000120>

  /*
   * Notify the operating system that interrupt processing is complete.
   */ 

  ALT_OS_INT_EXIT();
 1b4:	0001883a 	nop
}
 1b8:	0001883a 	nop
 1bc:	e037883a 	mov	sp,fp
 1c0:	dfc00117 	ldw	ra,4(sp)
 1c4:	df000017 	ldw	fp,0(sp)
 1c8:	dec00204 	addi	sp,sp,8
 1cc:	f800283a 	ret

000001d0 <alt_instruction_exception_entry>:
 * that handler if it has been registered. Absent a handler, it will
 * break break or hang as discussed below.
 */
int 
alt_instruction_exception_entry (alt_u32 exception_pc)
{
 1d0:	defffb04 	addi	sp,sp,-20
 1d4:	dfc00415 	stw	ra,16(sp)
 1d8:	df000315 	stw	fp,12(sp)
 1dc:	df000304 	addi	fp,sp,12
 1e0:	e13fff15 	stw	r4,-4(fp)
 * NIOS2_EXCEPTION_CAUSE_NOT_PRESENT. Your handling routine should
 * check the validity of the cause argument before proceeding.
 */
#ifdef NIOS2_HAS_EXTRA_EXCEPTION_INFO
  /* Get exception cause & "badaddr" */
  NIOS2_READ_EXCEPTION(cause);
 1e4:	000531fa 	rdctl	r2,exception
 1e8:	e0bffd15 	stw	r2,-12(fp)
  cause = ( (cause & NIOS2_EXCEPTION_REG_CAUSE_MASK) >>
 1ec:	e0bffd17 	ldw	r2,-12(fp)
 1f0:	10801f0c 	andi	r2,r2,124
 1f4:	1004d0ba 	srli	r2,r2,2
 1f8:	e0bffd15 	stw	r2,-12(fp)
              NIOS2_EXCEPTION_REG_CAUSE_OFST );

  NIOS2_READ_BADADDR(badaddr);
 1fc:	0005333a 	rdctl	r2,badaddr
 200:	e0bffe15 	stw	r2,-8(fp)
#else
  cause = NIOS2_EXCEPTION_CAUSE_NOT_PRESENT;
  badaddr = 0;
#endif /* NIOS2_HAS_EXTRA_EXCEPTION_INFO */

  if(alt_instruction_exception_handler) {
 204:	d0a72c17 	ldw	r2,-25424(gp)
 208:	10000726 	beq	r2,zero,228 <alt_instruction_exception_entry+0x58>
     * Call handler. Its return value indicates whether the exception-causing
     * instruction should be re-issued. The code that called us,
     * alt_eceptions_entry.S, will look at this value and adjust the ea
     * register as necessary
     */
    return alt_instruction_exception_handler(cause, exception_pc, badaddr);
 20c:	d0a72c17 	ldw	r2,-25424(gp)
 210:	e0fffd17 	ldw	r3,-12(fp)
 214:	e1bffe17 	ldw	r6,-8(fp)
 218:	e17fff17 	ldw	r5,-4(fp)
 21c:	1809883a 	mov	r4,r3
 220:	103ee83a 	callr	r2
 224:	00000206 	br	230 <alt_instruction_exception_entry+0x60>
   *    (a peripheral which negates its interrupt output before its
   *    interrupt handler has been executed will cause spurious interrupts)
   */
  else {
#ifdef NIOS2_HAS_DEBUG_STUB
    NIOS2_BREAK();
 228:	003da03a 	break	0
      ;
#endif /* NIOS2_HAS_DEBUG_STUB */
  }

  /* We should not get here. Remove compiler warning. */
  return NIOS2_EXCEPTION_RETURN_REISSUE_INST;
 22c:	0005883a 	mov	r2,zero
}
 230:	e037883a 	mov	sp,fp
 234:	dfc00117 	ldw	ra,4(sp)
 238:	df000017 	ldw	fp,0(sp)
 23c:	dec00204 	addi	sp,sp,8
 240:	f800283a 	ret

Disassembly of section .text:

00000244 <_start>:

    /* Assume the data cache size is always a power of two. */
#if NIOS2_DCACHE_SIZE > 0x8000
    movhi r2, %hi(NIOS2_DCACHE_SIZE)
#else
    movui r2, NIOS2_DCACHE_SIZE
     244:	00a00014 	movui	r2,32768
#endif

0:
    initd 0(r2)
     248:	10000033 	initd	0(r2)
#ifdef NIOS2_ECC_PRESENT
    addi r2, r2, -4
#else
    addi r2, r2, -NIOS2_DCACHE_LINE_SIZE
     24c:	10bff804 	addi	r2,r2,-32
#endif
    bgt r2, zero, 0b
     250:	00bffd16 	blt	zero,r2,248 <__alt_data_end+0xff000248>

    /*
     * Now that the caches are initialized, set up the stack pointer and global pointer.
     * The values provided by the linker are assumed to be correctly aligned.
     */
    movhi sp, %hi(__alt_stack_pointer)
     254:	06c04034 	movhi	sp,256
    ori sp, sp, %lo(__alt_stack_pointer)
     258:	dec00014 	ori	sp,sp,0
    movhi gp, %hi(_gp)
     25c:	06800074 	movhi	gp,1
    ori gp, gp, %lo(_gp)
     260:	d6ae0614 	ori	gp,gp,47128
 */
#ifndef ALT_SIM_OPTIMIZE
    /* Log that the BSS is about to be cleared. */
    ALT_LOG_PUTS(alt_log_msg_bss)

    movhi r2, %hi(__bss_start)
     264:	00800074 	movhi	r2,1
    ori r2, r2, %lo(__bss_start)
     268:	10951114 	ori	r2,r2,21572

    movhi r3, %hi(__bss_end)
     26c:	00c00074 	movhi	r3,1
    ori r3, r3, %lo(__bss_end)
     270:	18d57d14 	ori	r3,r3,22004

    beq r2, r3, 1f
     274:	10c00326 	beq	r2,r3,284 <_start+0x40>

0:
    stw zero, (r2)
     278:	10000015 	stw	zero,0(r2)
    addi r2, r2, 4
     27c:	10800104 	addi	r2,r2,4
    bltu r2, r3, 0b
     280:	10fffd36 	bltu	r2,r3,278 <__alt_data_end+0xff000278>
     * section aren't defined until alt_load() has been called).
     */
    mov   et, zero
#endif

    call alt_load
     284:	000eb280 	call	eb28 <alt_load>

    /* Log that alt_main is about to be called. */
    ALT_LOG_PUTS(alt_log_msg_alt_main)

    /* Call the C entry point. It should never return. */
    call alt_main
     288:	000ecbc0 	call	ecbc <alt_main>

0000028c <alt_after_alt_main>:

    /* Wait in infinite loop in case alt_main does return. */
alt_after_alt_main:
    br alt_after_alt_main
     28c:	003fff06 	br	28c <__alt_data_end+0xff00028c>

00000290 <init_camera>:
#include "camera.h"
#include "mt9d112.h"

void init_camera() {
	int i;
	IOWR_8DIRECT(I2C_CTRL_BASE,I2C_PRESCALE_REG,2); // Set prescaler
     290:	00804034 	movhi	r2,256
     294:	11042744 	addi	r4,r2,4253
     298:	00c00084 	movi	r3,2
     29c:	20c00025 	stbio	r3,0(r4)
	IOWR_8DIRECT(CAM_CTRL_BASE,CAM_CONTROL_REG,CAM_Reset);
     2a0:	01404034 	movhi	r5,256
     2a4:	29841304 	addi	r6,r5,4172
     2a8:	01c00044 	movi	r7,1
     2ac:	31c00025 	stbio	r7,0(r6)
     2b0:	020003f4 	movhi	r8,15
     2b4:	42509004 	addi	r9,r8,16960
	for (i=0; i < 1000000 ; i++)
		asm volatile ("nop");
     2b8:	0001883a 	nop
     2bc:	0001883a 	nop
     2c0:	0001883a 	nop
     2c4:	0001883a 	nop
     2c8:	0001883a 	nop
     2cc:	0001883a 	nop
     2d0:	0001883a 	nop
     2d4:	0001883a 	nop
     2d8:	4a7ffe04 	addi	r9,r9,-8

void init_camera() {
	int i;
	IOWR_8DIRECT(I2C_CTRL_BASE,I2C_PRESCALE_REG,2); // Set prescaler
	IOWR_8DIRECT(CAM_CTRL_BASE,CAM_CONTROL_REG,CAM_Reset);
	for (i=0; i < 1000000 ; i++)
     2dc:	483ff61e 	bne	r9,zero,2b8 <__alt_data_end+0xff0002b8>
		asm volatile ("nop");
	IOWR_8DIRECT(CAM_CTRL_BASE,CAM_CONTROL_REG,0);
     2e0:	02804034 	movhi	r10,256
     2e4:	52c41304 	addi	r11,r10,4172
     2e8:	58000025 	stbio	zero,0(r11)
     2ec:	030003f4 	movhi	r12,15
     2f0:	63509004 	addi	r13,r12,16960
	for (i=0; i < 1000000 ; i++)
		asm volatile ("nop");
     2f4:	0001883a 	nop
     2f8:	0001883a 	nop
     2fc:	0001883a 	nop
     300:	0001883a 	nop
     304:	0001883a 	nop
     308:	0001883a 	nop
     30c:	0001883a 	nop
     310:	0001883a 	nop
     314:	6b7ffe04 	addi	r13,r13,-8
	IOWR_8DIRECT(I2C_CTRL_BASE,I2C_PRESCALE_REG,2); // Set prescaler
	IOWR_8DIRECT(CAM_CTRL_BASE,CAM_CONTROL_REG,CAM_Reset);
	for (i=0; i < 1000000 ; i++)
		asm volatile ("nop");
	IOWR_8DIRECT(CAM_CTRL_BASE,CAM_CONTROL_REG,0);
	for (i=0; i < 1000000 ; i++)
     318:	683ff61e 	bne	r13,zero,2f4 <__alt_data_end+0xff0002f4>
#include <stdio.h>
#include "i2c.h"
#include "camera.h"
#include "mt9d112.h"

void init_camera() {
     31c:	defffc04 	addi	sp,sp,-16
	for (i=0; i < 1000000 ; i++)
		asm volatile ("nop");
	IOWR_8DIRECT(CAM_CTRL_BASE,CAM_CONTROL_REG,0);
	for (i=0; i < 1000000 ; i++)
		asm volatile ("nop");
	i2c_short_write(CAM_I2C_ID,REG_MT9D112_MCU_BOOT,0x0001);
     320:	01800044 	movi	r6,1
     324:	014ce184 	movi	r5,13190
     328:	01001e04 	movi	r4,120
#include <stdio.h>
#include "i2c.h"
#include "camera.h"
#include "mt9d112.h"

void init_camera() {
     32c:	dfc00315 	stw	ra,12(sp)
     330:	dc800215 	stw	r18,8(sp)
     334:	dc400115 	stw	r17,4(sp)
     338:	dc000015 	stw	r16,0(sp)
	for (i=0; i < 1000000 ; i++)
		asm volatile ("nop");
	IOWR_8DIRECT(CAM_CTRL_BASE,CAM_CONTROL_REG,0);
	for (i=0; i < 1000000 ; i++)
		asm volatile ("nop");
	i2c_short_write(CAM_I2C_ID,REG_MT9D112_MCU_BOOT,0x0001);
     33c:	00010080 	call	1008 <i2c_short_write>
	i2c_short_write(CAM_I2C_ID,REG_MT9D112_MCU_BOOT,0x0000);
     340:	000d883a 	mov	r6,zero
     344:	014ce184 	movi	r5,13190
     348:	01001e04 	movi	r4,120
     34c:	00010080 	call	1008 <i2c_short_write>
     350:	038003f4 	movhi	r14,15
     354:	73d09004 	addi	r15,r14,16960
	for (i=0; i < 1000000 ; i++)
		asm volatile ("nop");
     358:	0001883a 	nop
     35c:	0001883a 	nop
     360:	0001883a 	nop
     364:	0001883a 	nop
     368:	0001883a 	nop
     36c:	0001883a 	nop
     370:	0001883a 	nop
     374:	0001883a 	nop
     378:	7bfffe04 	addi	r15,r15,-8
	IOWR_8DIRECT(CAM_CTRL_BASE,CAM_CONTROL_REG,0);
	for (i=0; i < 1000000 ; i++)
		asm volatile ("nop");
	i2c_short_write(CAM_I2C_ID,REG_MT9D112_MCU_BOOT,0x0001);
	i2c_short_write(CAM_I2C_ID,REG_MT9D112_MCU_BOOT,0x0000);
	for (i=0; i < 1000000 ; i++)
     37c:	783ff61e 	bne	r15,zero,358 <__alt_data_end+0xff000358>
		asm volatile ("nop");
	i2c_short_write(CAM_I2C_ID,REG_MT9D112_SENSOR_RESET,0x00C4);
     380:	01803104 	movi	r6,196
     384:	014c0684 	movi	r5,12314
     388:	01001e04 	movi	r4,120
     38c:	00010080 	call	1008 <i2c_short_write>
	i2c_short_write(CAM_I2C_ID,REG_MT9D112_STANDBY_CONTROL,0x0008);
     390:	01800204 	movi	r6,8
     394:	014c8084 	movi	r5,12802
     398:	01001e04 	movi	r4,120
     39c:	00010080 	call	1008 <i2c_short_write>
	i2c_short_write(CAM_I2C_ID,0x33F4,0x031D);
     3a0:	0180c744 	movi	r6,797
     3a4:	014cfd04 	movi	r5,13300
     3a8:	01001e04 	movi	r4,120
     3ac:	040000b4 	movhi	r16,2
     3b0:	00010080 	call	1008 <i2c_short_write>
     3b4:	8461a804 	addi	r17,r16,-31072
	for (i=0; i < 100000 ; i++)
		asm volatile ("nop");
     3b8:	0001883a 	nop
     3bc:	0001883a 	nop
     3c0:	0001883a 	nop
     3c4:	0001883a 	nop
     3c8:	0001883a 	nop
     3cc:	0001883a 	nop
     3d0:	0001883a 	nop
     3d4:	0001883a 	nop
     3d8:	8c7ffe04 	addi	r17,r17,-8
	for (i=0; i < 1000000 ; i++)
		asm volatile ("nop");
	i2c_short_write(CAM_I2C_ID,REG_MT9D112_SENSOR_RESET,0x00C4);
	i2c_short_write(CAM_I2C_ID,REG_MT9D112_STANDBY_CONTROL,0x0008);
	i2c_short_write(CAM_I2C_ID,0x33F4,0x031D);
	for (i=0; i < 100000 ; i++)
     3dc:	883ff61e 	bne	r17,zero,3b8 <__alt_data_end+0xff0003b8>
		asm volatile ("nop");
	/* enable PLL */
	i2c_short_write(CAM_I2C_ID,REG_MT9D112_PLL_CLK_IN_CONTROL,0x8F09);
     3e0:	01a3c254 	movui	r6,36617
     3e4:	014d0784 	movi	r5,13342
     3e8:	01001e04 	movi	r4,120
     3ec:	00010080 	call	1008 <i2c_short_write>
	i2c_short_write(CAM_I2C_ID,REG_MT9D112_PLL_DIVIDERS_1,0x0150);
     3f0:	01805404 	movi	r6,336
     3f4:	014d0704 	movi	r5,13340
     3f8:	01001e04 	movi	r4,120
     3fc:	00010080 	call	1008 <i2c_short_write>
	i2c_short_write(CAM_I2C_ID,REG_MT9D112_PLL_CLK_IN_CONTROL,0x8F09);
     400:	01a3c254 	movui	r6,36617
     404:	014d0784 	movi	r5,13342
     408:	01001e04 	movi	r4,120
     40c:	00010080 	call	1008 <i2c_short_write>
     410:	048000b4 	movhi	r18,2
     414:	90a1a804 	addi	r2,r18,-31072
	for (i=0; i < 100000 ; i++)
		asm volatile ("nop");
     418:	0001883a 	nop
     41c:	0001883a 	nop
     420:	0001883a 	nop
     424:	0001883a 	nop
     428:	0001883a 	nop
     42c:	0001883a 	nop
     430:	0001883a 	nop
     434:	0001883a 	nop
     438:	10bffe04 	addi	r2,r2,-8
		asm volatile ("nop");
	/* enable PLL */
	i2c_short_write(CAM_I2C_ID,REG_MT9D112_PLL_CLK_IN_CONTROL,0x8F09);
	i2c_short_write(CAM_I2C_ID,REG_MT9D112_PLL_DIVIDERS_1,0x0150);
	i2c_short_write(CAM_I2C_ID,REG_MT9D112_PLL_CLK_IN_CONTROL,0x8F09);
	for (i=0; i < 100000 ; i++)
     43c:	103ff61e 	bne	r2,zero,418 <__alt_data_end+0xff000418>
     440:	07c00074 	movhi	ra,1
     444:	fc05e304 	addi	r16,ra,6028
		asm volatile ("nop");
	i2c_short_write(CAM_I2C_ID,REG_MT9D112_PLL_CLK_IN_CONTROL,0x8F08);
     448:	01a3c214 	movui	r6,36616
     44c:	014d0784 	movi	r5,13342
     450:	01001e04 	movi	r4,120
     454:	00010080 	call	1008 <i2c_short_write>
     458:	84400084 	addi	r17,r16,2
     45c:	84804604 	addi	r18,r16,280
	/* Set regs */
	for (i = 0 ; i < (sizeof(preview_snapshot_mode_reg_settings_array)/4); i++) {
		i2c_short_write(CAM_I2C_ID,
     460:	8140000b 	ldhu	r5,0(r16)
     464:	8980000b 	ldhu	r6,0(r17)
     468:	01001e04 	movi	r4,120
     46c:	84000a04 	addi	r16,r16,40
     470:	00010080 	call	1008 <i2c_short_write>
     474:	8980010b 	ldhu	r6,4(r17)
     478:	817ff70b 	ldhu	r5,-36(r16)
     47c:	01001e04 	movi	r4,120
     480:	8c400a04 	addi	r17,r17,40
     484:	00010080 	call	1008 <i2c_short_write>
     488:	89bff80b 	ldhu	r6,-32(r17)
     48c:	817ff80b 	ldhu	r5,-32(r16)
     490:	01001e04 	movi	r4,120
     494:	00010080 	call	1008 <i2c_short_write>
     498:	89bff90b 	ldhu	r6,-28(r17)
     49c:	817ff90b 	ldhu	r5,-28(r16)
     4a0:	01001e04 	movi	r4,120
     4a4:	00010080 	call	1008 <i2c_short_write>
     4a8:	89bffa0b 	ldhu	r6,-24(r17)
     4ac:	817ffa0b 	ldhu	r5,-24(r16)
     4b0:	01001e04 	movi	r4,120
     4b4:	00010080 	call	1008 <i2c_short_write>
     4b8:	89bffb0b 	ldhu	r6,-20(r17)
     4bc:	817ffb0b 	ldhu	r5,-20(r16)
     4c0:	01001e04 	movi	r4,120
     4c4:	00010080 	call	1008 <i2c_short_write>
     4c8:	89bffc0b 	ldhu	r6,-16(r17)
     4cc:	817ffc0b 	ldhu	r5,-16(r16)
     4d0:	01001e04 	movi	r4,120
     4d4:	00010080 	call	1008 <i2c_short_write>
     4d8:	89bffd0b 	ldhu	r6,-12(r17)
     4dc:	817ffd0b 	ldhu	r5,-12(r16)
     4e0:	01001e04 	movi	r4,120
     4e4:	00010080 	call	1008 <i2c_short_write>
     4e8:	89bffe0b 	ldhu	r6,-8(r17)
     4ec:	817ffe0b 	ldhu	r5,-8(r16)
     4f0:	01001e04 	movi	r4,120
     4f4:	00010080 	call	1008 <i2c_short_write>
     4f8:	89bfff0b 	ldhu	r6,-4(r17)
     4fc:	817fff0b 	ldhu	r5,-4(r16)
     500:	01001e04 	movi	r4,120
     504:	00010080 	call	1008 <i2c_short_write>
	i2c_short_write(CAM_I2C_ID,REG_MT9D112_PLL_CLK_IN_CONTROL,0x8F09);
	for (i=0; i < 100000 ; i++)
		asm volatile ("nop");
	i2c_short_write(CAM_I2C_ID,REG_MT9D112_PLL_CLK_IN_CONTROL,0x8F08);
	/* Set regs */
	for (i = 0 ; i < (sizeof(preview_snapshot_mode_reg_settings_array)/4); i++) {
     508:	84bfd51e 	bne	r16,r18,460 <__alt_data_end+0xff000460>
     50c:	01000074 	movhi	r4,1
     510:	24059304 	addi	r16,r4,5708
     514:	84400084 	addi	r17,r16,2
     518:	84805004 	addi	r18,r16,320
		i2c_short_write(CAM_I2C_ID,
				preview_snapshot_mode_reg_settings_array[i][0],
				preview_snapshot_mode_reg_settings_array[i][1]);
	}
	for (i = 0 ; i < (sizeof(noise_reduction_reg_settings_array)/4); i++) {
		i2c_short_write(CAM_I2C_ID,
     51c:	8140000b 	ldhu	r5,0(r16)
     520:	8980000b 	ldhu	r6,0(r17)
     524:	01001e04 	movi	r4,120
     528:	84000804 	addi	r16,r16,32
     52c:	00010080 	call	1008 <i2c_short_write>
     530:	8980010b 	ldhu	r6,4(r17)
     534:	817ff90b 	ldhu	r5,-28(r16)
     538:	01001e04 	movi	r4,120
     53c:	8c400804 	addi	r17,r17,32
     540:	00010080 	call	1008 <i2c_short_write>
     544:	89bffa0b 	ldhu	r6,-24(r17)
     548:	817ffa0b 	ldhu	r5,-24(r16)
     54c:	01001e04 	movi	r4,120
     550:	00010080 	call	1008 <i2c_short_write>
     554:	89bffb0b 	ldhu	r6,-20(r17)
     558:	817ffb0b 	ldhu	r5,-20(r16)
     55c:	01001e04 	movi	r4,120
     560:	00010080 	call	1008 <i2c_short_write>
     564:	89bffc0b 	ldhu	r6,-16(r17)
     568:	817ffc0b 	ldhu	r5,-16(r16)
     56c:	01001e04 	movi	r4,120
     570:	00010080 	call	1008 <i2c_short_write>
     574:	89bffd0b 	ldhu	r6,-12(r17)
     578:	817ffd0b 	ldhu	r5,-12(r16)
     57c:	01001e04 	movi	r4,120
     580:	00010080 	call	1008 <i2c_short_write>
     584:	89bffe0b 	ldhu	r6,-8(r17)
     588:	817ffe0b 	ldhu	r5,-8(r16)
     58c:	01001e04 	movi	r4,120
     590:	00010080 	call	1008 <i2c_short_write>
     594:	89bfff0b 	ldhu	r6,-4(r17)
     598:	817fff0b 	ldhu	r5,-4(r16)
     59c:	01001e04 	movi	r4,120
     5a0:	00010080 	call	1008 <i2c_short_write>
	for (i = 0 ; i < (sizeof(preview_snapshot_mode_reg_settings_array)/4); i++) {
		i2c_short_write(CAM_I2C_ID,
				preview_snapshot_mode_reg_settings_array[i][0],
				preview_snapshot_mode_reg_settings_array[i][1]);
	}
	for (i = 0 ; i < (sizeof(noise_reduction_reg_settings_array)/4); i++) {
     5a4:	943fdd1e 	bne	r18,r16,51c <__alt_data_end+0xff00051c>
		i2c_short_write(CAM_I2C_ID,
				noise_reduction_reg_settings_array[i][0],
				noise_reduction_reg_settings_array[i][1]);
	}
	i2c_short_write(CAM_I2C_ID,0x35A4,0x0593);
     5a8:	018164c4 	movi	r6,1427
     5ac:	014d6904 	movi	r5,13732
     5b0:	01001e04 	movi	r4,120
     5b4:	00010080 	call	1008 <i2c_short_write>
// sequencer table
	i2c_short_write(CAM_I2C_ID,0x338C,0x2799);
     5b8:	0189e644 	movi	r6,10137
     5bc:	014ce304 	movi	r5,13196
     5c0:	01001e04 	movi	r4,120
     5c4:	00010080 	call	1008 <i2c_short_write>
	i2c_short_write(CAM_I2C_ID,0x3390,0x6440);
     5c8:	014ce404 	movi	r5,13200
     5cc:	01991004 	movi	r6,25664
     5d0:	01001e04 	movi	r4,120
     5d4:	00010080 	call	1008 <i2c_short_write>
     5d8:	00c000b4 	movhi	r3,2
     5dc:	1961a804 	addi	r5,r3,-31072
	for (i=0; i < 100000 ; i++)
		asm volatile ("nop");
     5e0:	0001883a 	nop
     5e4:	0001883a 	nop
     5e8:	0001883a 	nop
     5ec:	0001883a 	nop
     5f0:	0001883a 	nop
     5f4:	0001883a 	nop
     5f8:	0001883a 	nop
     5fc:	0001883a 	nop
     600:	297ffe04 	addi	r5,r5,-8
	}
	i2c_short_write(CAM_I2C_ID,0x35A4,0x0593);
// sequencer table
	i2c_short_write(CAM_I2C_ID,0x338C,0x2799);
	i2c_short_write(CAM_I2C_ID,0x3390,0x6440);
	for (i=0; i < 100000 ; i++)
     604:	283ff61e 	bne	r5,zero,5e0 <__alt_data_end+0xff0005e0>
		asm volatile ("nop");
	i2c_short_write(CAM_I2C_ID,0x338C,0x279B);
     608:	0189e6c4 	movi	r6,10139
     60c:	014ce304 	movi	r5,13196
     610:	01001e04 	movi	r4,120
     614:	00010080 	call	1008 <i2c_short_write>
	i2c_short_write(CAM_I2C_ID,0x3390,0x6440);
     618:	01991004 	movi	r6,25664
     61c:	014ce404 	movi	r5,13200
     620:	01001e04 	movi	r4,120
     624:	00010080 	call	1008 <i2c_short_write>
     628:	018000b4 	movhi	r6,2
     62c:	31e1a804 	addi	r7,r6,-31072
	for (i=0; i < 100000 ; i++)
		asm volatile ("nop");
     630:	0001883a 	nop
     634:	0001883a 	nop
     638:	0001883a 	nop
     63c:	0001883a 	nop
     640:	0001883a 	nop
     644:	0001883a 	nop
     648:	0001883a 	nop
     64c:	0001883a 	nop
     650:	39fffe04 	addi	r7,r7,-8
	i2c_short_write(CAM_I2C_ID,0x3390,0x6440);
	for (i=0; i < 100000 ; i++)
		asm volatile ("nop");
	i2c_short_write(CAM_I2C_ID,0x338C,0x279B);
	i2c_short_write(CAM_I2C_ID,0x3390,0x6440);
	for (i=0; i < 100000 ; i++)
     654:	383ff61e 	bne	r7,zero,630 <__alt_data_end+0xff000630>
		asm volatile ("nop");
	i2c_short_write(CAM_I2C_ID,0x338C,0xA103);
     658:	01a840d4 	movui	r6,41219
     65c:	014ce304 	movi	r5,13196
     660:	01001e04 	movi	r4,120
     664:	00010080 	call	1008 <i2c_short_write>
	i2c_short_write(CAM_I2C_ID,0x3390,0x0005);
     668:	01800144 	movi	r6,5
     66c:	014ce404 	movi	r5,13200
     670:	01001e04 	movi	r4,120
     674:	00010080 	call	1008 <i2c_short_write>
     678:	020000b4 	movhi	r8,2
     67c:	4261a804 	addi	r9,r8,-31072
	for (i=0; i < 100000 ; i++)
		asm volatile ("nop");
     680:	0001883a 	nop
     684:	0001883a 	nop
     688:	0001883a 	nop
     68c:	0001883a 	nop
     690:	0001883a 	nop
     694:	0001883a 	nop
     698:	0001883a 	nop
     69c:	0001883a 	nop
     6a0:	4a7ffe04 	addi	r9,r9,-8
	i2c_short_write(CAM_I2C_ID,0x3390,0x6440);
	for (i=0; i < 100000 ; i++)
		asm volatile ("nop");
	i2c_short_write(CAM_I2C_ID,0x338C,0xA103);
	i2c_short_write(CAM_I2C_ID,0x3390,0x0005);
	for (i=0; i < 100000 ; i++)
     6a4:	483ff61e 	bne	r9,zero,680 <__alt_data_end+0xff000680>
		asm volatile ("nop");
	i2c_short_write(CAM_I2C_ID,0x338C,0xA103);
     6a8:	01a840d4 	movui	r6,41219
     6ac:	014ce304 	movi	r5,13196
     6b0:	01001e04 	movi	r4,120
     6b4:	00010080 	call	1008 <i2c_short_write>
	i2c_short_write(CAM_I2C_ID,0x3390,0x0006);
     6b8:	01800184 	movi	r6,6
     6bc:	014ce404 	movi	r5,13200
     6c0:	01001e04 	movi	r4,120
     6c4:	00010080 	call	1008 <i2c_short_write>
     6c8:	028000b4 	movhi	r10,2
     6cc:	52e1a804 	addi	r11,r10,-31072
	for (i=0; i < 100000 ; i++)
		asm volatile ("nop");
     6d0:	0001883a 	nop
     6d4:	0001883a 	nop
     6d8:	0001883a 	nop
     6dc:	0001883a 	nop
     6e0:	0001883a 	nop
     6e4:	0001883a 	nop
     6e8:	0001883a 	nop
     6ec:	0001883a 	nop
     6f0:	5afffe04 	addi	r11,r11,-8
	i2c_short_write(CAM_I2C_ID,0x3390,0x0005);
	for (i=0; i < 100000 ; i++)
		asm volatile ("nop");
	i2c_short_write(CAM_I2C_ID,0x338C,0xA103);
	i2c_short_write(CAM_I2C_ID,0x3390,0x0006);
	for (i=0; i < 100000 ; i++)
     6f4:	583ff61e 	bne	r11,zero,6d0 <__alt_data_end+0xff0006d0>
     6f8:	03000074 	movhi	r12,1
     6fc:	64454904 	addi	r17,r12,5412
		asm volatile ("nop");
	for (i = 0 ; i < (sizeof(lens_roll_off_tbl)/4); i++) {
		i2c_short_write(CAM_I2C_ID,
     700:	8980008b 	ldhu	r6,2(r17)
     704:	8940000b 	ldhu	r5,0(r17)
     708:	01001e04 	movi	r4,120
     70c:	8c804a04 	addi	r18,r17,296
     710:	00010080 	call	1008 <i2c_short_write>
     714:	8980018b 	ldhu	r6,6(r17)
     718:	8940010b 	ldhu	r5,4(r17)
     71c:	01001e04 	movi	r4,120
     720:	8c000204 	addi	r16,r17,8
     724:	8c400284 	addi	r17,r17,10
     728:	00010080 	call	1008 <i2c_short_write>
     72c:	8140000b 	ldhu	r5,0(r16)
     730:	8980000b 	ldhu	r6,0(r17)
     734:	01001e04 	movi	r4,120
     738:	84000804 	addi	r16,r16,32
     73c:	00010080 	call	1008 <i2c_short_write>
     740:	8980010b 	ldhu	r6,4(r17)
     744:	817ff90b 	ldhu	r5,-28(r16)
     748:	01001e04 	movi	r4,120
     74c:	8c400804 	addi	r17,r17,32
     750:	00010080 	call	1008 <i2c_short_write>
     754:	89bffa0b 	ldhu	r6,-24(r17)
     758:	817ffa0b 	ldhu	r5,-24(r16)
     75c:	01001e04 	movi	r4,120
     760:	00010080 	call	1008 <i2c_short_write>
     764:	89bffb0b 	ldhu	r6,-20(r17)
     768:	817ffb0b 	ldhu	r5,-20(r16)
     76c:	01001e04 	movi	r4,120
     770:	00010080 	call	1008 <i2c_short_write>
     774:	89bffc0b 	ldhu	r6,-16(r17)
     778:	817ffc0b 	ldhu	r5,-16(r16)
     77c:	01001e04 	movi	r4,120
     780:	00010080 	call	1008 <i2c_short_write>
     784:	89bffd0b 	ldhu	r6,-12(r17)
     788:	817ffd0b 	ldhu	r5,-12(r16)
     78c:	01001e04 	movi	r4,120
     790:	00010080 	call	1008 <i2c_short_write>
     794:	89bffe0b 	ldhu	r6,-8(r17)
     798:	817ffe0b 	ldhu	r5,-8(r16)
     79c:	01001e04 	movi	r4,120
     7a0:	00010080 	call	1008 <i2c_short_write>
     7a4:	89bfff0b 	ldhu	r6,-4(r17)
     7a8:	817fff0b 	ldhu	r5,-4(r16)
     7ac:	01001e04 	movi	r4,120
     7b0:	00010080 	call	1008 <i2c_short_write>
		asm volatile ("nop");
	i2c_short_write(CAM_I2C_ID,0x338C,0xA103);
	i2c_short_write(CAM_I2C_ID,0x3390,0x0006);
	for (i=0; i < 100000 ; i++)
		asm volatile ("nop");
	for (i = 0 ; i < (sizeof(lens_roll_off_tbl)/4); i++) {
     7b4:	943fdd1e 	bne	r18,r16,72c <__alt_data_end+0xff00072c>
     7b8:	034003f4 	movhi	r13,15
     7bc:	6b909004 	addi	r14,r13,16960
		i2c_short_write(CAM_I2C_ID,
				lens_roll_off_tbl[i][0],
				lens_roll_off_tbl[i][1]);
	}
	for (i=0; i < 1000000 ; i++)
		asm volatile ("nop");
     7c0:	0001883a 	nop
     7c4:	0001883a 	nop
     7c8:	0001883a 	nop
     7cc:	0001883a 	nop
     7d0:	0001883a 	nop
     7d4:	0001883a 	nop
     7d8:	0001883a 	nop
     7dc:	0001883a 	nop
     7e0:	73bffe04 	addi	r14,r14,-8
	for (i = 0 ; i < (sizeof(lens_roll_off_tbl)/4); i++) {
		i2c_short_write(CAM_I2C_ID,
				lens_roll_off_tbl[i][0],
				lens_roll_off_tbl[i][1]);
	}
	for (i=0; i < 1000000 ; i++)
     7e4:	703ff61e 	bne	r14,zero,7c0 <__alt_data_end+0xff0007c0>
		asm volatile ("nop");
	i2c_short_write(CAM_I2C_ID,0x332E,0x0020);
     7e8:	01800804 	movi	r6,32
     7ec:	014ccb84 	movi	r5,13102
     7f0:	01001e04 	movi	r4,120
     7f4:	00010080 	call	1008 <i2c_short_write>
     7f8:	03c003f4 	movhi	r15,15
     7fc:	78909004 	addi	r2,r15,16960
	for (i=0; i < 1000000 ; i++)
		asm volatile ("nop");
     800:	0001883a 	nop
     804:	0001883a 	nop
     808:	0001883a 	nop
     80c:	0001883a 	nop
     810:	0001883a 	nop
     814:	0001883a 	nop
     818:	0001883a 	nop
     81c:	0001883a 	nop
     820:	10bffe04 	addi	r2,r2,-8
				lens_roll_off_tbl[i][1]);
	}
	for (i=0; i < 1000000 ; i++)
		asm volatile ("nop");
	i2c_short_write(CAM_I2C_ID,0x332E,0x0020);
	for (i=0; i < 1000000 ; i++)
     824:	103ff61e 	bne	r2,zero,800 <__alt_data_end+0xff000800>
		asm volatile ("nop");
	i2c_short_write(CAM_I2C_ID,0x3404,0x0022); /* set RGB565 mode */
     828:	01001e04 	movi	r4,120
     82c:	01800884 	movi	r6,34
     830:	014d0104 	movi	r5,13316
     834:	00010080 	call	1008 <i2c_short_write>
     838:	010003f4 	movhi	r4,15
     83c:	20d09004 	addi	r3,r4,16960
	for (i=0; i < 1000000 ; i++)
		asm volatile ("nop");
     840:	0001883a 	nop
     844:	0001883a 	nop
     848:	0001883a 	nop
     84c:	0001883a 	nop
     850:	0001883a 	nop
     854:	0001883a 	nop
     858:	0001883a 	nop
     85c:	0001883a 	nop
     860:	18fffe04 	addi	r3,r3,-8
		asm volatile ("nop");
	i2c_short_write(CAM_I2C_ID,0x332E,0x0020);
	for (i=0; i < 1000000 ; i++)
		asm volatile ("nop");
	i2c_short_write(CAM_I2C_ID,0x3404,0x0022); /* set RGB565 mode */
	for (i=0; i < 1000000 ; i++)
     864:	183ff61e 	bne	r3,zero,840 <__alt_data_end+0xff000840>
		asm volatile ("nop");
	i2c_short_write(CAM_I2C_ID,0x3040,0x0027); /* mirror */
     868:	018009c4 	movi	r6,39
     86c:	014c1004 	movi	r5,12352
     870:	01001e04 	movi	r4,120
}
     874:	dfc00317 	ldw	ra,12(sp)
     878:	dc800217 	ldw	r18,8(sp)
     87c:	dc400117 	ldw	r17,4(sp)
     880:	dc000017 	ldw	r16,0(sp)
     884:	dec00404 	addi	sp,sp,16
	for (i=0; i < 1000000 ; i++)
		asm volatile ("nop");
	i2c_short_write(CAM_I2C_ID,0x3404,0x0022); /* set RGB565 mode */
	for (i=0; i < 1000000 ; i++)
		asm volatile ("nop");
	i2c_short_write(CAM_I2C_ID,0x3040,0x0027); /* mirror */
     888:	00010081 	jmpi	1008 <i2c_short_write>

0000088c <cam_get_xsize>:
}

unsigned short cam_get_xsize(){
	unsigned char control_reg;
	do {
		control_reg = IORD_8DIRECT(CAM_CTRL_BASE,CAM_CONTROL_REG);
     88c:	00c04034 	movhi	r3,256
     890:	19041304 	addi	r4,r3,4172
     894:	20800023 	ldbuio	r2,0(r4)
	} while ((control_reg&CAM_Profile_valid)==0);
     898:	1140010c 	andi	r5,r2,4
     89c:	283ffd26 	beq	r5,zero,894 <__alt_data_end+0xff000894>
	return IORD_16DIRECT(CAM_CTRL_BASE,CAM_BYTES_EACH_LINE_REG);
     8a0:	01804034 	movhi	r6,256
     8a4:	31c41004 	addi	r7,r6,4160
}
     8a8:	3880002b 	ldhuio	r2,0(r7)
     8ac:	f800283a 	ret

000008b0 <cam_get_ysize>:

unsigned short cam_get_ysize() {
	unsigned char control_reg;
	do {
		control_reg = IORD_8DIRECT(CAM_CTRL_BASE,CAM_CONTROL_REG);
     8b0:	00c04034 	movhi	r3,256
     8b4:	19041304 	addi	r4,r3,4172
     8b8:	20800023 	ldbuio	r2,0(r4)
	} while ((control_reg&CAM_Profile_valid)==0);
     8bc:	1140010c 	andi	r5,r2,4
     8c0:	283ffd26 	beq	r5,zero,8b8 <__alt_data_end+0xff0008b8>
	return IORD_16DIRECT(CAM_CTRL_BASE,CAM_LINES_EACH_FRAME_REG);
     8c4:	01804034 	movhi	r6,256
     8c8:	31c41104 	addi	r7,r6,4164
}
     8cc:	3880002b 	ldhuio	r2,0(r7)
     8d0:	f800283a 	ret

000008d4 <cam_get_profiling>:

void cam_get_profiling() {
	unsigned char control_reg;
	do {
		control_reg = IORD_8DIRECT(CAM_CTRL_BASE,CAM_CONTROL_REG);
     8d4:	00c04034 	movhi	r3,256
     8d8:	19041304 	addi	r4,r3,4172
     8dc:	20800023 	ldbuio	r2,0(r4)
	} while ((control_reg&CAM_Profile_valid)==0);
     8e0:	1140010c 	andi	r5,r2,4
     8e4:	283ffd26 	beq	r5,zero,8dc <__alt_data_end+0xff0008dc>
	printf("Nr. of bytes each line    : %d\n",
     8e8:	01804034 	movhi	r6,256
		control_reg = IORD_8DIRECT(CAM_CTRL_BASE,CAM_CONTROL_REG);
	} while ((control_reg&CAM_Profile_valid)==0);
	return IORD_16DIRECT(CAM_CTRL_BASE,CAM_LINES_EACH_FRAME_REG);
}

void cam_get_profiling() {
     8ec:	deffff04 	addi	sp,sp,-4
	unsigned char control_reg;
	do {
		control_reg = IORD_8DIRECT(CAM_CTRL_BASE,CAM_CONTROL_REG);
	} while ((control_reg&CAM_Profile_valid)==0);
	printf("Nr. of bytes each line    : %d\n",
     8f0:	31c41004 	addi	r7,r6,4160
		control_reg = IORD_8DIRECT(CAM_CTRL_BASE,CAM_CONTROL_REG);
	} while ((control_reg&CAM_Profile_valid)==0);
	return IORD_16DIRECT(CAM_CTRL_BASE,CAM_LINES_EACH_FRAME_REG);
}

void cam_get_profiling() {
     8f4:	dfc00015 	stw	ra,0(sp)
	unsigned char control_reg;
	do {
		control_reg = IORD_8DIRECT(CAM_CTRL_BASE,CAM_CONTROL_REG);
	} while ((control_reg&CAM_Profile_valid)==0);
	printf("Nr. of bytes each line    : %d\n",
     8f8:	3a00002b 	ldhuio	r8,0(r7)
     8fc:	02400074 	movhi	r9,1
     900:	49053104 	addi	r4,r9,5316
     904:	417fffcc 	andi	r5,r8,65535
     908:	00032800 	call	3280 <printf>
			IORD_16DIRECT(CAM_CTRL_BASE,CAM_BYTES_EACH_LINE_REG));
	printf("Nr. of lines each frame   : %d\n",
     90c:	02804034 	movhi	r10,256
     910:	52c41104 	addi	r11,r10,4164
     914:	5b00002b 	ldhuio	r12,0(r11)
     918:	03400074 	movhi	r13,1
     91c:	69053904 	addi	r4,r13,5348
     920:	617fffcc 	andi	r5,r12,65535
     924:	00032800 	call	3280 <printf>
			IORD_16DIRECT(CAM_CTRL_BASE,CAM_LINES_EACH_FRAME_REG));
	printf("Nr. of frames each second : %d\n",
     928:	03804034 	movhi	r14,256
     92c:	73c41204 	addi	r15,r14,4168
     930:	78c0002b 	ldhuio	r3,0(r15)
     934:	01000074 	movhi	r4,1
     938:	21054104 	addi	r4,r4,5380
     93c:	197fffcc 	andi	r5,r3,65535
			IORD_16DIRECT(CAM_CTRL_BASE,CAM_FRAME_RATE_REG));
}
     940:	dfc00017 	ldw	ra,0(sp)
     944:	dec00104 	addi	sp,sp,4
	} while ((control_reg&CAM_Profile_valid)==0);
	printf("Nr. of bytes each line    : %d\n",
			IORD_16DIRECT(CAM_CTRL_BASE,CAM_BYTES_EACH_LINE_REG));
	printf("Nr. of lines each frame   : %d\n",
			IORD_16DIRECT(CAM_CTRL_BASE,CAM_LINES_EACH_FRAME_REG));
	printf("Nr. of frames each second : %d\n",
     948:	00032801 	jmpi	3280 <printf>

0000094c <cam_set_image_pointer>:
			IORD_16DIRECT(CAM_CTRL_BASE,CAM_FRAME_RATE_REG));
}

void cam_set_image_pointer(char pointer_id,
		                   void *memory_pointer) {
	switch (pointer_id) {
     94c:	21003fcc 	andi	r4,r4,255
     950:	2080201c 	xori	r2,r4,128
     954:	10ffe004 	addi	r3,r2,-128
     958:	01800044 	movi	r6,1
     95c:	19801226 	beq	r3,r6,9a8 <cam_set_image_pointer+0x5c>
     960:	30c00c0e 	bge	r6,r3,994 <cam_set_image_pointer+0x48>
     964:	02400084 	movi	r9,2
     968:	1a400626 	beq	r3,r9,984 <cam_set_image_pointer+0x38>
     96c:	028000c4 	movi	r10,3
     970:	1a80111e 	bne	r3,r10,9b8 <cam_set_image_pointer+0x6c>
	            break;
	   case 1 : IOWR_32DIRECT(CAM_CTRL_BASE,CAM_ADDR_PNTR_2,(int)memory_pointer);
                break;
	   case 2 : IOWR_32DIRECT(CAM_CTRL_BASE,CAM_ADDR_PNTR_3,(int)memory_pointer);
                break;
	   case 3 : IOWR_32DIRECT(CAM_CTRL_BASE,CAM_ADDR_PNTR_4,(int)memory_pointer);
     974:	02c04034 	movhi	r11,256
     978:	5b041704 	addi	r12,r11,4188
     97c:	61400035 	stwio	r5,0(r12)
     980:	f800283a 	ret
	switch (pointer_id) {
	   case 0 : IOWR_32DIRECT(CAM_CTRL_BASE,CAM_ADDR_PNTR_1,(int)memory_pointer);
	            break;
	   case 1 : IOWR_32DIRECT(CAM_CTRL_BASE,CAM_ADDR_PNTR_2,(int)memory_pointer);
                break;
	   case 2 : IOWR_32DIRECT(CAM_CTRL_BASE,CAM_ADDR_PNTR_3,(int)memory_pointer);
     984:	03404034 	movhi	r13,256
     988:	6b841604 	addi	r14,r13,4184
     98c:	71400035 	stwio	r5,0(r14)
                break;
     990:	f800283a 	ret
			IORD_16DIRECT(CAM_CTRL_BASE,CAM_FRAME_RATE_REG));
}

void cam_set_image_pointer(char pointer_id,
		                   void *memory_pointer) {
	switch (pointer_id) {
     994:	1800091e 	bne	r3,zero,9bc <cam_set_image_pointer+0x70>
	   case 0 : IOWR_32DIRECT(CAM_CTRL_BASE,CAM_ADDR_PNTR_1,(int)memory_pointer);
     998:	01c04034 	movhi	r7,256
     99c:	3a041404 	addi	r8,r7,4176
     9a0:	41400035 	stwio	r5,0(r8)
	            break;
     9a4:	f800283a 	ret
	   case 1 : IOWR_32DIRECT(CAM_CTRL_BASE,CAM_ADDR_PNTR_2,(int)memory_pointer);
     9a8:	03c04034 	movhi	r15,256
     9ac:	79041504 	addi	r4,r15,4180
     9b0:	21400035 	stwio	r5,0(r4)
                break;
     9b4:	f800283a 	ret
     9b8:	f800283a 	ret
     9bc:	f800283a 	ret

000009c0 <current_image_valid>:
	}
}

short current_image_valid() {
	unsigned short value;
	value = IORD_16DIRECT(CAM_CTRL_BASE,CAM_CONTROL_REG);
     9c0:	00804034 	movhi	r2,256
     9c4:	10c41304 	addi	r3,r2,4172
     9c8:	1900002b 	ldhuio	r4,0(r3)
	return (value&CAM_Current_Image_Valid);
}
     9cc:	2080800c 	andi	r2,r4,512
     9d0:	f800283a 	ret

000009d4 <current_image_pointer>:

void *current_image_pointer() {
	return (void *)IORD_32DIRECT(CAM_CTRL_BASE,CAM_ADDR_PNTR_1);
     9d4:	00804034 	movhi	r2,256
     9d8:	10c41404 	addi	r3,r2,4176
}
     9dc:	18800037 	ldwio	r2,0(r3)
     9e0:	f800283a 	ret

000009e4 <take_picture_blocking>:

void take_picture_blocking() {
	unsigned short value;
	IOWR_16DIRECT(CAM_CTRL_BASE,CAM_CONTROL_REG,CAM_Take_Picture);
     9e4:	00c04034 	movhi	r3,256
     9e8:	19041304 	addi	r4,r3,4172
     9ec:	00800204 	movi	r2,8
     9f0:	2080002d 	sthio	r2,0(r4)
	do {
		value = IORD_16DIRECT(CAM_CTRL_BASE,CAM_CONTROL_REG);
     9f4:	2140002b 	ldhuio	r5,0(r4)
	} while ((value&CAM_Busy)!= 0);
     9f8:	2980020c 	andi	r6,r5,8
     9fc:	303ffd1e 	bne	r6,zero,9f4 <__alt_data_end+0xff0009f4>
}
     a00:	f800283a 	ret

00000a04 <enable_continues_mode>:

void enable_continues_mode() {
	IOWR_16DIRECT(CAM_CTRL_BASE,CAM_CONTROL_REG,CAM_Start_Continues);
     a04:	00804034 	movhi	r2,256
     a08:	11041304 	addi	r4,r2,4172
     a0c:	00c00404 	movi	r3,16
     a10:	20c0002d 	sthio	r3,0(r4)
     a14:	f800283a 	ret

00000a18 <new_image_available>:
}

char new_image_available() {
	unsigned short value;
	value = IORD_16DIRECT(CAM_CTRL_BASE,CAM_CONTROL_REG);
     a18:	00c04034 	movhi	r3,256
     a1c:	19041304 	addi	r4,r3,4172
     a20:	2080002b 	ldhuio	r2,0(r4)
	if ((value&CAM_IRQ_Generated)!=0) {
     a24:	1140200c 	andi	r5,r2,128
     a28:	2800021e 	bne	r5,zero,a34 <new_image_available+0x1c>
		IOWR_16DIRECT(CAM_CTRL_BASE,CAM_CONTROL_REG,CAM_Clear_IRQ);
		return 1;
	} else return 0;
     a2c:	0005883a 	mov	r2,zero
}
     a30:	f800283a 	ret

char new_image_available() {
	unsigned short value;
	value = IORD_16DIRECT(CAM_CTRL_BASE,CAM_CONTROL_REG);
	if ((value&CAM_IRQ_Generated)!=0) {
		IOWR_16DIRECT(CAM_CTRL_BASE,CAM_CONTROL_REG,CAM_Clear_IRQ);
     a34:	01804004 	movi	r6,256
     a38:	2180002d 	sthio	r6,0(r4)
		return 1;
     a3c:	00800044 	movi	r2,1
     a40:	f800283a 	ret

00000a44 <DIPSW_get_value>:

#include <system.h>
#include <io.h>

unsigned char DIPSW_get_value() {
	return IORD_8DIRECT(PIO_0_BASE,0)^0xFF;
     a44:	00804034 	movhi	r2,256
     a48:	10c42804 	addi	r3,r2,4256
     a4c:	19000023 	ldbuio	r4,0(r3)
}
     a50:	0104303a 	nor	r2,zero,r4
     a54:	f800283a 	ret

00000a58 <conv_grayscale>:
int size_int = 0;

void conv_grayscale(void *picture) {
	register unsigned int * pos = (unsigned int *)(grayscale_array_int);
	register int pxl = 0;
	register unsigned int * end = (unsigned int *)(grayscale_array_int+size_int);
     a58:	d1a70b17 	ldw	r6,-25556(gp)
int grayscale_width = 0;
int grayscape_height = 0;
int size_int = 0;

void conv_grayscale(void *picture) {
	register unsigned int * pos = (unsigned int *)(grayscale_array_int);
     a5c:	d2270f17 	ldw	r8,-25540(gp)
	register int pxl = 0;
	register unsigned int * end = (unsigned int *)(grayscale_array_int+size_int);
     a60:	3185883a 	add	r2,r6,r6
     a64:	1087883a 	add	r3,r2,r2
     a68:	40d5883a 	add	r10,r8,r3
	register unsigned int *pixels = (unsigned int *)picture;

	while (pos < end) {
     a6c:	4280762e 	bgeu	r8,r10,c48 <conv_grayscale+0x1f0>
     a70:	020e303a 	nor	r7,zero,r8
     a74:	51cb883a 	add	r5,r10,r7
     a78:	2812d0ba 	srli	r9,r5,2

			*pos = ALT_CI_MULTIPLE_RGB2GRAY_0(pixels[pxl++],pixels[pxl++]);
     a7c:	22c00017 	ldw	r11,0(r4)
     a80:	23000117 	ldw	r12,4(r4)
     a84:	4b4001cc 	andi	r13,r9,7
     a88:	5b1dc0f2 	custom	3,r14,r11,r12
     a8c:	43800015 	stw	r14,0(r8)
			pos++;
     a90:	40800104 	addi	r2,r8,4
     a94:	21400204 	addi	r5,r4,8
     a98:	20c00304 	addi	r3,r4,12
	register unsigned int * pos = (unsigned int *)(grayscale_array_int);
	register int pxl = 0;
	register unsigned int * end = (unsigned int *)(grayscale_array_int+size_int);
	register unsigned int *pixels = (unsigned int *)picture;

	while (pos < end) {
     a9c:	12806c2e 	bgeu	r2,r10,c50 <conv_grayscale+0x1f8>
     aa0:	68003e26 	beq	r13,zero,b9c <conv_grayscale+0x144>
     aa4:	03c00044 	movi	r15,1
     aa8:	6bc03426 	beq	r13,r15,b7c <conv_grayscale+0x124>
     aac:	01800084 	movi	r6,2
     ab0:	69802b26 	beq	r13,r6,b60 <conv_grayscale+0x108>
     ab4:	01c000c4 	movi	r7,3
     ab8:	69c02226 	beq	r13,r7,b44 <conv_grayscale+0xec>
     abc:	02400104 	movi	r9,4
     ac0:	6a401926 	beq	r13,r9,b28 <conv_grayscale+0xd0>
     ac4:	02c00144 	movi	r11,5
     ac8:	6ac01026 	beq	r13,r11,b0c <conv_grayscale+0xb4>
     acc:	03000184 	movi	r12,6
     ad0:	6b000726 	beq	r13,r12,af0 <conv_grayscale+0x98>

			*pos = ALT_CI_MULTIPLE_RGB2GRAY_0(pixels[pxl++],pixels[pxl++]);
     ad4:	29400017 	ldw	r5,0(r5)
     ad8:	18c00017 	ldw	r3,0(r3)
     adc:	28dbc0f2 	custom	3,r13,r5,r3
     ae0:	13400015 	stw	r13,0(r2)
     ae4:	21400404 	addi	r5,r4,16
			pos++;
     ae8:	40800204 	addi	r2,r8,8
     aec:	20c00504 	addi	r3,r4,20
	register unsigned int * end = (unsigned int *)(grayscale_array_int+size_int);
	register unsigned int *pixels = (unsigned int *)picture;

	while (pos < end) {

			*pos = ALT_CI_MULTIPLE_RGB2GRAY_0(pixels[pxl++],pixels[pxl++]);
     af0:	29000017 	ldw	r4,0(r5)
     af4:	1a000017 	ldw	r8,0(r3)
     af8:	221dc0f2 	custom	3,r14,r4,r8
     afc:	13800015 	stw	r14,0(r2)
     b00:	29400204 	addi	r5,r5,8
			pos++;
     b04:	10800104 	addi	r2,r2,4
     b08:	18c00204 	addi	r3,r3,8
	register unsigned int * end = (unsigned int *)(grayscale_array_int+size_int);
	register unsigned int *pixels = (unsigned int *)picture;

	while (pos < end) {

			*pos = ALT_CI_MULTIPLE_RGB2GRAY_0(pixels[pxl++],pixels[pxl++]);
     b0c:	2bc00017 	ldw	r15,0(r5)
     b10:	19800017 	ldw	r6,0(r3)
     b14:	798fc0f2 	custom	3,r7,r15,r6
     b18:	11c00015 	stw	r7,0(r2)
     b1c:	29400204 	addi	r5,r5,8
			pos++;
     b20:	10800104 	addi	r2,r2,4
     b24:	18c00204 	addi	r3,r3,8
	register unsigned int * end = (unsigned int *)(grayscale_array_int+size_int);
	register unsigned int *pixels = (unsigned int *)picture;

	while (pos < end) {

			*pos = ALT_CI_MULTIPLE_RGB2GRAY_0(pixels[pxl++],pixels[pxl++]);
     b28:	2a400017 	ldw	r9,0(r5)
     b2c:	1ac00017 	ldw	r11,0(r3)
     b30:	4ad9c0f2 	custom	3,r12,r9,r11
     b34:	13000015 	stw	r12,0(r2)
     b38:	29400204 	addi	r5,r5,8
			pos++;
     b3c:	10800104 	addi	r2,r2,4
     b40:	18c00204 	addi	r3,r3,8
	register unsigned int * end = (unsigned int *)(grayscale_array_int+size_int);
	register unsigned int *pixels = (unsigned int *)picture;

	while (pos < end) {

			*pos = ALT_CI_MULTIPLE_RGB2GRAY_0(pixels[pxl++],pixels[pxl++]);
     b44:	2b400017 	ldw	r13,0(r5)
     b48:	19000017 	ldw	r4,0(r3)
     b4c:	6911c0f2 	custom	3,r8,r13,r4
     b50:	12000015 	stw	r8,0(r2)
     b54:	29400204 	addi	r5,r5,8
			pos++;
     b58:	10800104 	addi	r2,r2,4
     b5c:	18c00204 	addi	r3,r3,8
	register unsigned int * end = (unsigned int *)(grayscale_array_int+size_int);
	register unsigned int *pixels = (unsigned int *)picture;

	while (pos < end) {

			*pos = ALT_CI_MULTIPLE_RGB2GRAY_0(pixels[pxl++],pixels[pxl++]);
     b60:	2b800017 	ldw	r14,0(r5)
     b64:	1bc00017 	ldw	r15,0(r3)
     b68:	73cdc0f2 	custom	3,r6,r14,r15
     b6c:	11800015 	stw	r6,0(r2)
     b70:	29400204 	addi	r5,r5,8
			pos++;
     b74:	10800104 	addi	r2,r2,4
     b78:	18c00204 	addi	r3,r3,8
	register unsigned int * end = (unsigned int *)(grayscale_array_int+size_int);
	register unsigned int *pixels = (unsigned int *)picture;

	while (pos < end) {

			*pos = ALT_CI_MULTIPLE_RGB2GRAY_0(pixels[pxl++],pixels[pxl++]);
     b7c:	2a400017 	ldw	r9,0(r5)
     b80:	19c00017 	ldw	r7,0(r3)
     b84:	49d7c0f2 	custom	3,r11,r9,r7
     b88:	12c00015 	stw	r11,0(r2)
			pos++;
     b8c:	10800104 	addi	r2,r2,4
     b90:	29400204 	addi	r5,r5,8
     b94:	18c00204 	addi	r3,r3,8
	register unsigned int * pos = (unsigned int *)(grayscale_array_int);
	register int pxl = 0;
	register unsigned int * end = (unsigned int *)(grayscale_array_int+size_int);
	register unsigned int *pixels = (unsigned int *)picture;

	while (pos < end) {
     b98:	12802c2e 	bgeu	r2,r10,c4c <conv_grayscale+0x1f4>

			*pos = ALT_CI_MULTIPLE_RGB2GRAY_0(pixels[pxl++],pixels[pxl++]);
     b9c:	2b000017 	ldw	r12,0(r5)
     ba0:	1b400017 	ldw	r13,0(r3)
     ba4:	6349c0f2 	custom	3,r4,r12,r13
     ba8:	11000015 	stw	r4,0(r2)
     bac:	2b800217 	ldw	r14,8(r5)
     bb0:	1a000217 	ldw	r8,8(r3)
			pos++;
     bb4:	13c00104 	addi	r15,r2,4
	register unsigned int * end = (unsigned int *)(grayscale_array_int+size_int);
	register unsigned int *pixels = (unsigned int *)picture;

	while (pos < end) {

			*pos = ALT_CI_MULTIPLE_RGB2GRAY_0(pixels[pxl++],pixels[pxl++]);
     bb8:	720dc0f2 	custom	3,r6,r14,r8
     bbc:	79800015 	stw	r6,0(r15)
     bc0:	2a400417 	ldw	r9,16(r5)
     bc4:	1ac00417 	ldw	r11,16(r3)
			pos++;
     bc8:	11c00204 	addi	r7,r2,8
	register unsigned int * end = (unsigned int *)(grayscale_array_int+size_int);
	register unsigned int *pixels = (unsigned int *)picture;

	while (pos < end) {

			*pos = ALT_CI_MULTIPLE_RGB2GRAY_0(pixels[pxl++],pixels[pxl++]);
     bcc:	4ad9c0f2 	custom	3,r12,r9,r11
     bd0:	3b000015 	stw	r12,0(r7)
     bd4:	2b400617 	ldw	r13,24(r5)
     bd8:	19000617 	ldw	r4,24(r3)
			pos++;
     bdc:	13800304 	addi	r14,r2,12
	register unsigned int * end = (unsigned int *)(grayscale_array_int+size_int);
	register unsigned int *pixels = (unsigned int *)picture;

	while (pos < end) {

			*pos = ALT_CI_MULTIPLE_RGB2GRAY_0(pixels[pxl++],pixels[pxl++]);
     be0:	6911c0f2 	custom	3,r8,r13,r4
     be4:	72000015 	stw	r8,0(r14)
     be8:	2bc00817 	ldw	r15,32(r5)
     bec:	19800817 	ldw	r6,32(r3)
			pos++;
     bf0:	12400404 	addi	r9,r2,16
	register unsigned int * end = (unsigned int *)(grayscale_array_int+size_int);
	register unsigned int *pixels = (unsigned int *)picture;

	while (pos < end) {

			*pos = ALT_CI_MULTIPLE_RGB2GRAY_0(pixels[pxl++],pixels[pxl++]);
     bf4:	7997c0f2 	custom	3,r11,r15,r6
     bf8:	4ac00015 	stw	r11,0(r9)
     bfc:	2b000a17 	ldw	r12,40(r5)
     c00:	1b400a17 	ldw	r13,40(r3)
			pos++;
     c04:	11c00504 	addi	r7,r2,20
	register unsigned int * end = (unsigned int *)(grayscale_array_int+size_int);
	register unsigned int *pixels = (unsigned int *)picture;

	while (pos < end) {

			*pos = ALT_CI_MULTIPLE_RGB2GRAY_0(pixels[pxl++],pixels[pxl++]);
     c08:	6349c0f2 	custom	3,r4,r12,r13
     c0c:	39000015 	stw	r4,0(r7)
     c10:	2b800c17 	ldw	r14,48(r5)
     c14:	1a000c17 	ldw	r8,48(r3)
			pos++;
     c18:	13c00604 	addi	r15,r2,24
	register unsigned int * end = (unsigned int *)(grayscale_array_int+size_int);
	register unsigned int *pixels = (unsigned int *)picture;

	while (pos < end) {

			*pos = ALT_CI_MULTIPLE_RGB2GRAY_0(pixels[pxl++],pixels[pxl++]);
     c1c:	720dc0f2 	custom	3,r6,r14,r8
     c20:	79800015 	stw	r6,0(r15)
     c24:	2a400e17 	ldw	r9,56(r5)
     c28:	1ac00e17 	ldw	r11,56(r3)
			pos++;
     c2c:	13000704 	addi	r12,r2,28
	register unsigned int * end = (unsigned int *)(grayscale_array_int+size_int);
	register unsigned int *pixels = (unsigned int *)picture;

	while (pos < end) {

			*pos = ALT_CI_MULTIPLE_RGB2GRAY_0(pixels[pxl++],pixels[pxl++]);
     c30:	4adbc0f2 	custom	3,r13,r9,r11
     c34:	63400015 	stw	r13,0(r12)
			pos++;
     c38:	10800804 	addi	r2,r2,32
     c3c:	29401004 	addi	r5,r5,64
     c40:	18c01004 	addi	r3,r3,64
	register unsigned int * pos = (unsigned int *)(grayscale_array_int);
	register int pxl = 0;
	register unsigned int * end = (unsigned int *)(grayscale_array_int+size_int);
	register unsigned int *pixels = (unsigned int *)picture;

	while (pos < end) {
     c44:	12bfd536 	bltu	r2,r10,b9c <__alt_data_end+0xff000b9c>
     c48:	f800283a 	ret
     c4c:	f800283a 	ret
     c50:	f800283a 	ret

00000c54 <conv_grayscale_init>:

RETURN
     7b0:	f800283a 	ret
 */

void conv_grayscale_init(int width, int height){
     c54:	defffb04 	addi	sp,sp,-20
     c58:	dc000015 	stw	r16,0(sp)
		grayscale_width = width;
		grayscale_width_int = width>>2;
     c5c:	2021d0ba 	srai	r16,r4,2

RETURN
     7b0:	f800283a 	ret
 */

void conv_grayscale_init(int width, int height){
     c60:	dc400115 	stw	r17,4(sp)
     c64:	2023883a 	mov	r17,r4
		grayscale_width = width;
		grayscale_width_int = width>>2;
		grayscape_height = height;
		if (grayscale_array != NULL)
     c68:	d1271017 	ldw	r4,-25536(gp)

RETURN
     7b0:	f800283a 	ret
 */

void conv_grayscale_init(int width, int height){
     c6c:	dc800215 	stw	r18,8(sp)
     c70:	dfc00415 	stw	ra,16(sp)
     c74:	dcc00315 	stw	r19,12(sp)
		grayscale_width = width;
     c78:	d4670d15 	stw	r17,-25548(gp)
		grayscale_width_int = width>>2;
     c7c:	d4270e15 	stw	r16,-25544(gp)
		grayscape_height = height;
     c80:	d1670c15 	stw	r5,-25552(gp)

RETURN
     7b0:	f800283a 	ret
 */

void conv_grayscale_init(int width, int height){
     c84:	2825883a 	mov	r18,r5
		grayscale_width = width;
		grayscale_width_int = width>>2;
		grayscape_height = height;
		if (grayscale_array != NULL)
     c88:	20001026 	beq	r4,zero,ccc <conv_grayscale_init+0x78>
			free(grayscale_array);
     c8c:	0002a300 	call	2a30 <free>
     c90:	d4e70c17 	ldw	r19,-25552(gp)
     c94:	d4270e17 	ldw	r16,-25544(gp)
		grayscale_array = (unsigned char *) malloc(width* height);
     c98:	8c89383a 	mul	r4,r17,r18
     c9c:	0002a1c0 	call	2a1c <malloc>
		grayscale_array_int = (unsigned int *) grayscale_array;
		size_int = grayscape_height*grayscale_width_int;
     ca0:	9c07383a 	mul	r3,r19,r16
		grayscale_width = width;
		grayscale_width_int = width>>2;
		grayscape_height = height;
		if (grayscale_array != NULL)
			free(grayscale_array);
		grayscale_array = (unsigned char *) malloc(width* height);
     ca4:	d0a71015 	stw	r2,-25536(gp)
		grayscale_array_int = (unsigned int *) grayscale_array;
     ca8:	d0a70f15 	stw	r2,-25540(gp)
		size_int = grayscape_height*grayscale_width_int;
     cac:	d0e70b15 	stw	r3,-25556(gp)
}
     cb0:	dfc00417 	ldw	ra,16(sp)
     cb4:	dcc00317 	ldw	r19,12(sp)
     cb8:	dc800217 	ldw	r18,8(sp)
     cbc:	dc400117 	ldw	r17,4(sp)
     cc0:	dc000017 	ldw	r16,0(sp)
     cc4:	dec00504 	addi	sp,sp,20
     cc8:	f800283a 	ret
     ccc:	2827883a 	mov	r19,r5
     cd0:	003ff106 	br	c98 <__alt_data_end+0xff000c98>

00000cd4 <get_grayscale_width>:



int get_grayscale_width() {
	return grayscale_width;
}
     cd4:	d0a70d17 	ldw	r2,-25548(gp)
     cd8:	f800283a 	ret

00000cdc <get_grayscale_height>:

int get_grayscale_height() {
	return grayscape_height;
}
     cdc:	d0a70c17 	ldw	r2,-25552(gp)
     ce0:	f800283a 	ret

00000ce4 <get_grayscale_picture>:

unsigned char *get_grayscale_picture() {
	return grayscale_array;
}
     ce4:	d0a71017 	ldw	r2,-25536(gp)
     ce8:	f800283a 	ret

00000cec <i2c_busy_wait>:
#include "i2c.h"

void i2c_busy_wait() {
	int busy;
	do {
		busy = IORD_32DIRECT(I2C_CTRL_BASE,I2C_CONTROL_REG);
     cec:	00c04034 	movhi	r3,256
     cf0:	19042704 	addi	r4,r3,4252
     cf4:	20800037 	ldwio	r2,0(r4)
	} while ((busy&(I2C_Busy_Flag|I2C_Autodetect_Busy_Flag))!=0);
     cf8:	114000cc 	andi	r5,r2,3
     cfc:	283ffd1e 	bne	r5,zero,cf4 <__alt_data_end+0xff000cf4>
}
     d00:	f800283a 	ret

00000d04 <i2c_auto_detect>:
#include "i2c.h"

void i2c_busy_wait() {
	int busy;
	do {
		busy = IORD_32DIRECT(I2C_CTRL_BASE,I2C_CONTROL_REG);
     d04:	01004034 	movhi	r4,256
     d08:	21442704 	addi	r5,r4,4252
     d0c:	00c04034 	movhi	r3,256
     d10:	19842704 	addi	r6,r3,4252
     d14:	28800037 	ldwio	r2,0(r5)
	} while ((busy&(I2C_Busy_Flag|I2C_Autodetect_Busy_Flag))!=0);
     d18:	11c000cc 	andi	r7,r2,3
     d1c:	383ffb1e 	bne	r7,zero,d0c <__alt_data_end+0xff000d0c>
}

void i2c_auto_detect() {
	int nrdef,loop,value;
    i2c_busy_wait();
    IOWR_32DIRECT(I2C_CTRL_BASE,I2C_CONTROL_REG,I2C_Autodetect);
     d20:	02000104 	movi	r8,4
     d24:	32000035 	stwio	r8,0(r6)
#include "i2c.h"

void i2c_busy_wait() {
	int busy;
	do {
		busy = IORD_32DIRECT(I2C_CTRL_BASE,I2C_CONTROL_REG);
     d28:	32400037 	ldwio	r9,0(r6)
	} while ((busy&(I2C_Busy_Flag|I2C_Autodetect_Busy_Flag))!=0);
     d2c:	4a8000cc 	andi	r10,r9,3
     d30:	503ffd1e 	bne	r10,zero,d28 <__alt_data_end+0xff000d28>
void i2c_auto_detect() {
	int nrdef,loop,value;
    i2c_busy_wait();
    IOWR_32DIRECT(I2C_CTRL_BASE,I2C_CONTROL_REG,I2C_Autodetect);
    i2c_busy_wait();
    nrdef = IORD_32DIRECT(I2C_CTRL_BASE,I2C_ADDR_REG);
     d34:	02c04034 	movhi	r11,256
	do {
		busy = IORD_32DIRECT(I2C_CTRL_BASE,I2C_CONTROL_REG);
	} while ((busy&(I2C_Busy_Flag|I2C_Autodetect_Busy_Flag))!=0);
}

void i2c_auto_detect() {
     d38:	defffb04 	addi	sp,sp,-20
	int nrdef,loop,value;
    i2c_busy_wait();
    IOWR_32DIRECT(I2C_CTRL_BASE,I2C_CONTROL_REG,I2C_Autodetect);
    i2c_busy_wait();
    nrdef = IORD_32DIRECT(I2C_CTRL_BASE,I2C_ADDR_REG);
     d3c:	5b042504 	addi	r12,r11,4244
	do {
		busy = IORD_32DIRECT(I2C_CTRL_BASE,I2C_CONTROL_REG);
	} while ((busy&(I2C_Busy_Flag|I2C_Autodetect_Busy_Flag))!=0);
}

void i2c_auto_detect() {
     d40:	dfc00415 	stw	ra,16(sp)
     d44:	dcc00315 	stw	r19,12(sp)
     d48:	dc800215 	stw	r18,8(sp)
     d4c:	dc400115 	stw	r17,4(sp)
     d50:	dc000015 	stw	r16,0(sp)
	int nrdef,loop,value;
    i2c_busy_wait();
    IOWR_32DIRECT(I2C_CTRL_BASE,I2C_CONTROL_REG,I2C_Autodetect);
    i2c_busy_wait();
    nrdef = IORD_32DIRECT(I2C_CTRL_BASE,I2C_ADDR_REG);
     d54:	64c00037 	ldwio	r19,0(r12)
    printf("Number of I2C devices detected: %d\n",nrdef);
     d58:	03400074 	movhi	r13,1
     d5c:	69062904 	addi	r4,r13,6308
     d60:	980b883a 	mov	r5,r19
     d64:	00032800 	call	3280 <printf>
    for (loop = 0 ; loop < nrdef ; loop++) {
     d68:	04c07d0e 	bge	zero,r19,f60 <i2c_auto_detect+0x25c>
     d6c:	04e5c83a 	sub	r18,zero,r19
     d70:	049c303a 	nor	r14,zero,r18
    	IOWR_32DIRECT(I2C_CTRL_BASE,I2C_DEVICE_ID_REG,loop);
     d74:	04404034 	movhi	r17,256
     d78:	8c442404 	addi	r17,r17,4240
     d7c:	748001cc 	andi	r18,r14,7
     d80:	88000035 	stwio	zero,0(r17)
    	value = IORD_32DIRECT(I2C_CTRL_BASE,I2C_DEVICE_ID_REG);
    	printf("Device nr. %d has Address: 0x%02X\n",loop,value);
     d84:	89800037 	ldwio	r6,0(r17)
     d88:	03c00074 	movhi	r15,1
    i2c_busy_wait();
    IOWR_32DIRECT(I2C_CTRL_BASE,I2C_CONTROL_REG,I2C_Autodetect);
    i2c_busy_wait();
    nrdef = IORD_32DIRECT(I2C_CTRL_BASE,I2C_ADDR_REG);
    printf("Number of I2C devices detected: %d\n",nrdef);
    for (loop = 0 ; loop < nrdef ; loop++) {
     d8c:	04000044 	movi	r16,1
    	IOWR_32DIRECT(I2C_CTRL_BASE,I2C_DEVICE_ID_REG,loop);
    	value = IORD_32DIRECT(I2C_CTRL_BASE,I2C_DEVICE_ID_REG);
    	printf("Device nr. %d has Address: 0x%02X\n",loop,value);
     d90:	79063204 	addi	r4,r15,6344
     d94:	000b883a 	mov	r5,zero
     d98:	00032800 	call	3280 <printf>
    i2c_busy_wait();
    IOWR_32DIRECT(I2C_CTRL_BASE,I2C_CONTROL_REG,I2C_Autodetect);
    i2c_busy_wait();
    nrdef = IORD_32DIRECT(I2C_CTRL_BASE,I2C_ADDR_REG);
    printf("Number of I2C devices detected: %d\n",nrdef);
    for (loop = 0 ; loop < nrdef ; loop++) {
     d9c:	9c007026 	beq	r19,r16,f60 <i2c_auto_detect+0x25c>
     da0:	90003d26 	beq	r18,zero,e98 <i2c_auto_detect+0x194>
     da4:	94003426 	beq	r18,r16,e78 <i2c_auto_detect+0x174>
     da8:	07c00084 	movi	ra,2
     dac:	97c02b26 	beq	r18,ra,e5c <i2c_auto_detect+0x158>
     db0:	010000c4 	movi	r4,3
     db4:	91002226 	beq	r18,r4,e40 <i2c_auto_detect+0x13c>
     db8:	01400104 	movi	r5,4
     dbc:	91401926 	beq	r18,r5,e24 <i2c_auto_detect+0x120>
     dc0:	00c00144 	movi	r3,5
     dc4:	90c01026 	beq	r18,r3,e08 <i2c_auto_detect+0x104>
     dc8:	01800184 	movi	r6,6
     dcc:	91800726 	beq	r18,r6,dec <i2c_auto_detect+0xe8>
    	IOWR_32DIRECT(I2C_CTRL_BASE,I2C_DEVICE_ID_REG,loop);
     dd0:	8c000035 	stwio	r16,0(r17)
    	value = IORD_32DIRECT(I2C_CTRL_BASE,I2C_DEVICE_ID_REG);
    	printf("Device nr. %d has Address: 0x%02X\n",loop,value);
     dd4:	89800037 	ldwio	r6,0(r17)
     dd8:	00800074 	movhi	r2,1
     ddc:	800b883a 	mov	r5,r16
     de0:	11063204 	addi	r4,r2,6344
     de4:	00032800 	call	3280 <printf>
    i2c_busy_wait();
    IOWR_32DIRECT(I2C_CTRL_BASE,I2C_CONTROL_REG,I2C_Autodetect);
    i2c_busy_wait();
    nrdef = IORD_32DIRECT(I2C_CTRL_BASE,I2C_ADDR_REG);
    printf("Number of I2C devices detected: %d\n",nrdef);
    for (loop = 0 ; loop < nrdef ; loop++) {
     de8:	84000044 	addi	r16,r16,1
    	IOWR_32DIRECT(I2C_CTRL_BASE,I2C_DEVICE_ID_REG,loop);
     dec:	8c000035 	stwio	r16,0(r17)
    	value = IORD_32DIRECT(I2C_CTRL_BASE,I2C_DEVICE_ID_REG);
    	printf("Device nr. %d has Address: 0x%02X\n",loop,value);
     df0:	89800037 	ldwio	r6,0(r17)
     df4:	01c00074 	movhi	r7,1
     df8:	800b883a 	mov	r5,r16
     dfc:	39063204 	addi	r4,r7,6344
     e00:	00032800 	call	3280 <printf>
    i2c_busy_wait();
    IOWR_32DIRECT(I2C_CTRL_BASE,I2C_CONTROL_REG,I2C_Autodetect);
    i2c_busy_wait();
    nrdef = IORD_32DIRECT(I2C_CTRL_BASE,I2C_ADDR_REG);
    printf("Number of I2C devices detected: %d\n",nrdef);
    for (loop = 0 ; loop < nrdef ; loop++) {
     e04:	84000044 	addi	r16,r16,1
    	IOWR_32DIRECT(I2C_CTRL_BASE,I2C_DEVICE_ID_REG,loop);
     e08:	8c000035 	stwio	r16,0(r17)
    	value = IORD_32DIRECT(I2C_CTRL_BASE,I2C_DEVICE_ID_REG);
    	printf("Device nr. %d has Address: 0x%02X\n",loop,value);
     e0c:	89800037 	ldwio	r6,0(r17)
     e10:	02000074 	movhi	r8,1
     e14:	800b883a 	mov	r5,r16
     e18:	41063204 	addi	r4,r8,6344
     e1c:	00032800 	call	3280 <printf>
    i2c_busy_wait();
    IOWR_32DIRECT(I2C_CTRL_BASE,I2C_CONTROL_REG,I2C_Autodetect);
    i2c_busy_wait();
    nrdef = IORD_32DIRECT(I2C_CTRL_BASE,I2C_ADDR_REG);
    printf("Number of I2C devices detected: %d\n",nrdef);
    for (loop = 0 ; loop < nrdef ; loop++) {
     e20:	84000044 	addi	r16,r16,1
    	IOWR_32DIRECT(I2C_CTRL_BASE,I2C_DEVICE_ID_REG,loop);
     e24:	8c000035 	stwio	r16,0(r17)
    	value = IORD_32DIRECT(I2C_CTRL_BASE,I2C_DEVICE_ID_REG);
    	printf("Device nr. %d has Address: 0x%02X\n",loop,value);
     e28:	89800037 	ldwio	r6,0(r17)
     e2c:	02400074 	movhi	r9,1
     e30:	800b883a 	mov	r5,r16
     e34:	49063204 	addi	r4,r9,6344
     e38:	00032800 	call	3280 <printf>
    i2c_busy_wait();
    IOWR_32DIRECT(I2C_CTRL_BASE,I2C_CONTROL_REG,I2C_Autodetect);
    i2c_busy_wait();
    nrdef = IORD_32DIRECT(I2C_CTRL_BASE,I2C_ADDR_REG);
    printf("Number of I2C devices detected: %d\n",nrdef);
    for (loop = 0 ; loop < nrdef ; loop++) {
     e3c:	84000044 	addi	r16,r16,1
    	IOWR_32DIRECT(I2C_CTRL_BASE,I2C_DEVICE_ID_REG,loop);
     e40:	8c000035 	stwio	r16,0(r17)
    	value = IORD_32DIRECT(I2C_CTRL_BASE,I2C_DEVICE_ID_REG);
    	printf("Device nr. %d has Address: 0x%02X\n",loop,value);
     e44:	89800037 	ldwio	r6,0(r17)
     e48:	02800074 	movhi	r10,1
     e4c:	800b883a 	mov	r5,r16
     e50:	51063204 	addi	r4,r10,6344
     e54:	00032800 	call	3280 <printf>
    i2c_busy_wait();
    IOWR_32DIRECT(I2C_CTRL_BASE,I2C_CONTROL_REG,I2C_Autodetect);
    i2c_busy_wait();
    nrdef = IORD_32DIRECT(I2C_CTRL_BASE,I2C_ADDR_REG);
    printf("Number of I2C devices detected: %d\n",nrdef);
    for (loop = 0 ; loop < nrdef ; loop++) {
     e58:	84000044 	addi	r16,r16,1
    	IOWR_32DIRECT(I2C_CTRL_BASE,I2C_DEVICE_ID_REG,loop);
     e5c:	8c000035 	stwio	r16,0(r17)
    	value = IORD_32DIRECT(I2C_CTRL_BASE,I2C_DEVICE_ID_REG);
    	printf("Device nr. %d has Address: 0x%02X\n",loop,value);
     e60:	89800037 	ldwio	r6,0(r17)
     e64:	02c00074 	movhi	r11,1
     e68:	800b883a 	mov	r5,r16
     e6c:	59063204 	addi	r4,r11,6344
     e70:	00032800 	call	3280 <printf>
    i2c_busy_wait();
    IOWR_32DIRECT(I2C_CTRL_BASE,I2C_CONTROL_REG,I2C_Autodetect);
    i2c_busy_wait();
    nrdef = IORD_32DIRECT(I2C_CTRL_BASE,I2C_ADDR_REG);
    printf("Number of I2C devices detected: %d\n",nrdef);
    for (loop = 0 ; loop < nrdef ; loop++) {
     e74:	84000044 	addi	r16,r16,1
    	IOWR_32DIRECT(I2C_CTRL_BASE,I2C_DEVICE_ID_REG,loop);
     e78:	8c000035 	stwio	r16,0(r17)
    	value = IORD_32DIRECT(I2C_CTRL_BASE,I2C_DEVICE_ID_REG);
    	printf("Device nr. %d has Address: 0x%02X\n",loop,value);
     e7c:	89800037 	ldwio	r6,0(r17)
     e80:	03000074 	movhi	r12,1
     e84:	800b883a 	mov	r5,r16
     e88:	61063204 	addi	r4,r12,6344
    i2c_busy_wait();
    IOWR_32DIRECT(I2C_CTRL_BASE,I2C_CONTROL_REG,I2C_Autodetect);
    i2c_busy_wait();
    nrdef = IORD_32DIRECT(I2C_CTRL_BASE,I2C_ADDR_REG);
    printf("Number of I2C devices detected: %d\n",nrdef);
    for (loop = 0 ; loop < nrdef ; loop++) {
     e8c:	84000044 	addi	r16,r16,1
    	IOWR_32DIRECT(I2C_CTRL_BASE,I2C_DEVICE_ID_REG,loop);
    	value = IORD_32DIRECT(I2C_CTRL_BASE,I2C_DEVICE_ID_REG);
    	printf("Device nr. %d has Address: 0x%02X\n",loop,value);
     e90:	00032800 	call	3280 <printf>
    i2c_busy_wait();
    IOWR_32DIRECT(I2C_CTRL_BASE,I2C_CONTROL_REG,I2C_Autodetect);
    i2c_busy_wait();
    nrdef = IORD_32DIRECT(I2C_CTRL_BASE,I2C_ADDR_REG);
    printf("Number of I2C devices detected: %d\n",nrdef);
    for (loop = 0 ; loop < nrdef ; loop++) {
     e94:	9c003226 	beq	r19,r16,f60 <i2c_auto_detect+0x25c>
    	IOWR_32DIRECT(I2C_CTRL_BASE,I2C_DEVICE_ID_REG,loop);
     e98:	8c000035 	stwio	r16,0(r17)
    	value = IORD_32DIRECT(I2C_CTRL_BASE,I2C_DEVICE_ID_REG);
    	printf("Device nr. %d has Address: 0x%02X\n",loop,value);
     e9c:	89800037 	ldwio	r6,0(r17)
     ea0:	03400074 	movhi	r13,1
     ea4:	800b883a 	mov	r5,r16
     ea8:	69063204 	addi	r4,r13,6344
     eac:	00032800 	call	3280 <printf>
    i2c_busy_wait();
    IOWR_32DIRECT(I2C_CTRL_BASE,I2C_CONTROL_REG,I2C_Autodetect);
    i2c_busy_wait();
    nrdef = IORD_32DIRECT(I2C_CTRL_BASE,I2C_ADDR_REG);
    printf("Number of I2C devices detected: %d\n",nrdef);
    for (loop = 0 ; loop < nrdef ; loop++) {
     eb0:	81400044 	addi	r5,r16,1
    	IOWR_32DIRECT(I2C_CTRL_BASE,I2C_DEVICE_ID_REG,loop);
     eb4:	89400035 	stwio	r5,0(r17)
    	value = IORD_32DIRECT(I2C_CTRL_BASE,I2C_DEVICE_ID_REG);
    	printf("Device nr. %d has Address: 0x%02X\n",loop,value);
     eb8:	89800037 	ldwio	r6,0(r17)
     ebc:	03800074 	movhi	r14,1
     ec0:	71063204 	addi	r4,r14,6344
     ec4:	00032800 	call	3280 <printf>
    i2c_busy_wait();
    IOWR_32DIRECT(I2C_CTRL_BASE,I2C_CONTROL_REG,I2C_Autodetect);
    i2c_busy_wait();
    nrdef = IORD_32DIRECT(I2C_CTRL_BASE,I2C_ADDR_REG);
    printf("Number of I2C devices detected: %d\n",nrdef);
    for (loop = 0 ; loop < nrdef ; loop++) {
     ec8:	81400084 	addi	r5,r16,2
    	IOWR_32DIRECT(I2C_CTRL_BASE,I2C_DEVICE_ID_REG,loop);
     ecc:	89400035 	stwio	r5,0(r17)
    	value = IORD_32DIRECT(I2C_CTRL_BASE,I2C_DEVICE_ID_REG);
    	printf("Device nr. %d has Address: 0x%02X\n",loop,value);
     ed0:	89800037 	ldwio	r6,0(r17)
     ed4:	04800074 	movhi	r18,1
     ed8:	91063204 	addi	r4,r18,6344
     edc:	00032800 	call	3280 <printf>
    i2c_busy_wait();
    IOWR_32DIRECT(I2C_CTRL_BASE,I2C_CONTROL_REG,I2C_Autodetect);
    i2c_busy_wait();
    nrdef = IORD_32DIRECT(I2C_CTRL_BASE,I2C_ADDR_REG);
    printf("Number of I2C devices detected: %d\n",nrdef);
    for (loop = 0 ; loop < nrdef ; loop++) {
     ee0:	814000c4 	addi	r5,r16,3
    	IOWR_32DIRECT(I2C_CTRL_BASE,I2C_DEVICE_ID_REG,loop);
     ee4:	89400035 	stwio	r5,0(r17)
    	value = IORD_32DIRECT(I2C_CTRL_BASE,I2C_DEVICE_ID_REG);
    	printf("Device nr. %d has Address: 0x%02X\n",loop,value);
     ee8:	89800037 	ldwio	r6,0(r17)
     eec:	03c00074 	movhi	r15,1
     ef0:	79063204 	addi	r4,r15,6344
     ef4:	00032800 	call	3280 <printf>
    i2c_busy_wait();
    IOWR_32DIRECT(I2C_CTRL_BASE,I2C_CONTROL_REG,I2C_Autodetect);
    i2c_busy_wait();
    nrdef = IORD_32DIRECT(I2C_CTRL_BASE,I2C_ADDR_REG);
    printf("Number of I2C devices detected: %d\n",nrdef);
    for (loop = 0 ; loop < nrdef ; loop++) {
     ef8:	81400104 	addi	r5,r16,4
    	IOWR_32DIRECT(I2C_CTRL_BASE,I2C_DEVICE_ID_REG,loop);
     efc:	89400035 	stwio	r5,0(r17)
    	value = IORD_32DIRECT(I2C_CTRL_BASE,I2C_DEVICE_ID_REG);
    	printf("Device nr. %d has Address: 0x%02X\n",loop,value);
     f00:	89800037 	ldwio	r6,0(r17)
     f04:	01000074 	movhi	r4,1
     f08:	21063204 	addi	r4,r4,6344
     f0c:	00032800 	call	3280 <printf>
    i2c_busy_wait();
    IOWR_32DIRECT(I2C_CTRL_BASE,I2C_CONTROL_REG,I2C_Autodetect);
    i2c_busy_wait();
    nrdef = IORD_32DIRECT(I2C_CTRL_BASE,I2C_ADDR_REG);
    printf("Number of I2C devices detected: %d\n",nrdef);
    for (loop = 0 ; loop < nrdef ; loop++) {
     f10:	81400144 	addi	r5,r16,5
    	IOWR_32DIRECT(I2C_CTRL_BASE,I2C_DEVICE_ID_REG,loop);
     f14:	89400035 	stwio	r5,0(r17)
    	value = IORD_32DIRECT(I2C_CTRL_BASE,I2C_DEVICE_ID_REG);
    	printf("Device nr. %d has Address: 0x%02X\n",loop,value);
     f18:	89800037 	ldwio	r6,0(r17)
     f1c:	00c00074 	movhi	r3,1
     f20:	19063204 	addi	r4,r3,6344
     f24:	00032800 	call	3280 <printf>
    i2c_busy_wait();
    IOWR_32DIRECT(I2C_CTRL_BASE,I2C_CONTROL_REG,I2C_Autodetect);
    i2c_busy_wait();
    nrdef = IORD_32DIRECT(I2C_CTRL_BASE,I2C_ADDR_REG);
    printf("Number of I2C devices detected: %d\n",nrdef);
    for (loop = 0 ; loop < nrdef ; loop++) {
     f28:	81400184 	addi	r5,r16,6
    	IOWR_32DIRECT(I2C_CTRL_BASE,I2C_DEVICE_ID_REG,loop);
     f2c:	89400035 	stwio	r5,0(r17)
    	value = IORD_32DIRECT(I2C_CTRL_BASE,I2C_DEVICE_ID_REG);
    	printf("Device nr. %d has Address: 0x%02X\n",loop,value);
     f30:	89800037 	ldwio	r6,0(r17)
     f34:	00800074 	movhi	r2,1
     f38:	11063204 	addi	r4,r2,6344
     f3c:	00032800 	call	3280 <printf>
    i2c_busy_wait();
    IOWR_32DIRECT(I2C_CTRL_BASE,I2C_CONTROL_REG,I2C_Autodetect);
    i2c_busy_wait();
    nrdef = IORD_32DIRECT(I2C_CTRL_BASE,I2C_ADDR_REG);
    printf("Number of I2C devices detected: %d\n",nrdef);
    for (loop = 0 ; loop < nrdef ; loop++) {
     f40:	814001c4 	addi	r5,r16,7
    	IOWR_32DIRECT(I2C_CTRL_BASE,I2C_DEVICE_ID_REG,loop);
     f44:	89400035 	stwio	r5,0(r17)
    	value = IORD_32DIRECT(I2C_CTRL_BASE,I2C_DEVICE_ID_REG);
    	printf("Device nr. %d has Address: 0x%02X\n",loop,value);
     f48:	89800037 	ldwio	r6,0(r17)
     f4c:	01c00074 	movhi	r7,1
    i2c_busy_wait();
    IOWR_32DIRECT(I2C_CTRL_BASE,I2C_CONTROL_REG,I2C_Autodetect);
    i2c_busy_wait();
    nrdef = IORD_32DIRECT(I2C_CTRL_BASE,I2C_ADDR_REG);
    printf("Number of I2C devices detected: %d\n",nrdef);
    for (loop = 0 ; loop < nrdef ; loop++) {
     f50:	84000204 	addi	r16,r16,8
    	IOWR_32DIRECT(I2C_CTRL_BASE,I2C_DEVICE_ID_REG,loop);
    	value = IORD_32DIRECT(I2C_CTRL_BASE,I2C_DEVICE_ID_REG);
    	printf("Device nr. %d has Address: 0x%02X\n",loop,value);
     f54:	39063204 	addi	r4,r7,6344
     f58:	00032800 	call	3280 <printf>
    i2c_busy_wait();
    IOWR_32DIRECT(I2C_CTRL_BASE,I2C_CONTROL_REG,I2C_Autodetect);
    i2c_busy_wait();
    nrdef = IORD_32DIRECT(I2C_CTRL_BASE,I2C_ADDR_REG);
    printf("Number of I2C devices detected: %d\n",nrdef);
    for (loop = 0 ; loop < nrdef ; loop++) {
     f5c:	9c3fce1e 	bne	r19,r16,e98 <__alt_data_end+0xff000e98>
    	IOWR_32DIRECT(I2C_CTRL_BASE,I2C_DEVICE_ID_REG,loop);
    	value = IORD_32DIRECT(I2C_CTRL_BASE,I2C_DEVICE_ID_REG);
    	printf("Device nr. %d has Address: 0x%02X\n",loop,value);
    }
}
     f60:	dfc00417 	ldw	ra,16(sp)
     f64:	dcc00317 	ldw	r19,12(sp)
     f68:	dc800217 	ldw	r18,8(sp)
     f6c:	dc400117 	ldw	r17,4(sp)
     f70:	dc000017 	ldw	r16,0(sp)
     f74:	dec00504 	addi	sp,sp,20
     f78:	f800283a 	ret

00000f7c <i2c_short_read>:
#include "i2c.h"

void i2c_busy_wait() {
	int busy;
	do {
		busy = IORD_32DIRECT(I2C_CTRL_BASE,I2C_CONTROL_REG);
     f7c:	01804034 	movhi	r6,256
     f80:	31c42704 	addi	r7,r6,4252
     f84:	00c04034 	movhi	r3,256
     f88:	1a042704 	addi	r8,r3,4252
     f8c:	38800037 	ldwio	r2,0(r7)
	} while ((busy&(I2C_Busy_Flag|I2C_Autodetect_Busy_Flag))!=0);
     f90:	124000cc 	andi	r9,r2,3
     f94:	483ffb1e 	bne	r9,zero,f84 <__alt_data_end+0xff000f84>
}

unsigned int i2c_short_read(unsigned char device_id,
		                    unsigned short address) {
	i2c_busy_wait();
	IOWR_8DIRECT(I2C_CTRL_BASE,I2C_DEVICE_ID_REG,device_id);
     f98:	02804034 	movhi	r10,256
     f9c:	21003fcc 	andi	r4,r4,255
     fa0:	52c42404 	addi	r11,r10,4240
     fa4:	59000025 	stbio	r4,0(r11)
	IOWR_16DIRECT(I2C_CTRL_BASE,I2C_ADDR_REG,address);
     fa8:	03004034 	movhi	r12,256
     fac:	63442504 	addi	r13,r12,4244
     fb0:	6940002d 	sthio	r5,0(r13)
	IOWR_8DIRECT(I2C_CTRL_BASE,I2C_CONTROL_REG,
     fb4:	014010c4 	movi	r5,67
     fb8:	41400025 	stbio	r5,0(r8)
#include "i2c.h"

void i2c_busy_wait() {
	int busy;
	do {
		busy = IORD_32DIRECT(I2C_CTRL_BASE,I2C_CONTROL_REG);
     fbc:	401d883a 	mov	r14,r8
     fc0:	03c04034 	movhi	r15,256
     fc4:	79842704 	addi	r6,r15,4252
     fc8:	71c00037 	ldwio	r7,0(r14)
	} while ((busy&(I2C_Busy_Flag|I2C_Autodetect_Busy_Flag))!=0);
     fcc:	38c000cc 	andi	r3,r7,3
     fd0:	183ffb1e 	bne	r3,zero,fc0 <__alt_data_end+0xff000fc0>
	IOWR_8DIRECT(I2C_CTRL_BASE,I2C_DEVICE_ID_REG,device_id);
	IOWR_16DIRECT(I2C_CTRL_BASE,I2C_ADDR_REG,address);
	IOWR_8DIRECT(I2C_CTRL_BASE,I2C_CONTROL_REG,
			     I2C_2Byte_Transfer|I2C_Start|I2C_Short_Transfer);
	i2c_busy_wait();
	IOWR_8DIRECT(I2C_CTRL_BASE,I2C_DEVICE_ID_REG,device_id+1);
     fd4:	00804034 	movhi	r2,256
     fd8:	22000044 	addi	r8,r4,1
     fdc:	12442404 	addi	r9,r2,4240
     fe0:	4a000025 	stbio	r8,0(r9)
	IOWR_8DIRECT(I2C_CTRL_BASE,I2C_CONTROL_REG,
     fe4:	01000884 	movi	r4,34
     fe8:	31000025 	stbio	r4,0(r6)
#include "i2c.h"

void i2c_busy_wait() {
	int busy;
	do {
		busy = IORD_32DIRECT(I2C_CTRL_BASE,I2C_CONTROL_REG);
     fec:	32800037 	ldwio	r10,0(r6)
	} while ((busy&(I2C_Busy_Flag|I2C_Autodetect_Busy_Flag))!=0);
     ff0:	52c000cc 	andi	r11,r10,3
     ff4:	583ffd1e 	bne	r11,zero,fec <__alt_data_end+0xff000fec>
	i2c_busy_wait();
	IOWR_8DIRECT(I2C_CTRL_BASE,I2C_DEVICE_ID_REG,device_id+1);
	IOWR_8DIRECT(I2C_CTRL_BASE,I2C_CONTROL_REG,
			     I2C_Start|I2C_4Byte_Read);
	i2c_busy_wait();
	return IORD_32DIRECT(I2C_CTRL_BASE,I2C_DATA_REG);
     ff8:	03004034 	movhi	r12,256
     ffc:	63442604 	addi	r13,r12,4248
}
    1000:	68800037 	ldwio	r2,0(r13)
    1004:	f800283a 	ret

00001008 <i2c_short_write>:
#include "i2c.h"

void i2c_busy_wait() {
	int busy;
	do {
		busy = IORD_32DIRECT(I2C_CTRL_BASE,I2C_CONTROL_REG);
    1008:	01c04034 	movhi	r7,256
    100c:	3a042704 	addi	r8,r7,4252
    1010:	00c04034 	movhi	r3,256
    1014:	1a442704 	addi	r9,r3,4252
    1018:	40800037 	ldwio	r2,0(r8)
	} while ((busy&(I2C_Busy_Flag|I2C_Autodetect_Busy_Flag))!=0);
    101c:	128000cc 	andi	r10,r2,3
    1020:	503ffb1e 	bne	r10,zero,1010 <__alt_data_end+0xff001010>

void i2c_short_write(unsigned char device_id,
		             unsigned short address,
		             unsigned short data) {
	i2c_busy_wait();
	IOWR_8DIRECT(I2C_CTRL_BASE,I2C_DEVICE_ID_REG,device_id);
    1024:	02c04034 	movhi	r11,256
    1028:	5b042404 	addi	r12,r11,4240
    102c:	61000025 	stbio	r4,0(r12)
	IOWR_16DIRECT(I2C_CTRL_BASE,I2C_ADDR_REG,address);
    1030:	01004034 	movhi	r4,256
    1034:	23442504 	addi	r13,r4,4244
    1038:	6940002d 	sthio	r5,0(r13)
	IOWR_16DIRECT(I2C_CTRL_BASE,I2C_DATA_REG,data);
    103c:	01404034 	movhi	r5,256
    1040:	2b842604 	addi	r14,r5,4248
    1044:	7180002d 	sthio	r6,0(r14)
	IOWR_8DIRECT(I2C_CTRL_BASE,I2C_CONTROL_REG,
    1048:	01801084 	movi	r6,66
    104c:	49800025 	stbio	r6,0(r9)
#include "i2c.h"

void i2c_busy_wait() {
	int busy;
	do {
		busy = IORD_32DIRECT(I2C_CTRL_BASE,I2C_CONTROL_REG);
    1050:	4bc00037 	ldwio	r15,0(r9)
	} while ((busy&(I2C_Busy_Flag|I2C_Autodetect_Busy_Flag))!=0);
    1054:	79c000cc 	andi	r7,r15,3
    1058:	383ffd1e 	bne	r7,zero,1050 <__alt_data_end+0xff001050>
	IOWR_16DIRECT(I2C_CTRL_BASE,I2C_ADDR_REG,address);
	IOWR_16DIRECT(I2C_CTRL_BASE,I2C_DATA_REG,data);
	IOWR_8DIRECT(I2C_CTRL_BASE,I2C_CONTROL_REG,
			     I2C_Start|I2C_Short_Transfer);
	i2c_busy_wait();
}
    105c:	f800283a 	ret

00001060 <LCD_Write_Command>:

unsigned short LCD_width;
unsigned short LCD_height;

void LCD_Write_Command(int command) {
	IOWR_16DIRECT(LCD_CTRL_BASE,LCD_COMMAND_REG,command);
    1060:	00804034 	movhi	r2,256
    1064:	10c41804 	addi	r3,r2,4192
    1068:	1900002d 	sthio	r4,0(r3)
	usleep(10);
    106c:	01000284 	movi	r4,10
    1070:	000f0441 	jmpi	f044 <usleep>

00001074 <LCD_Write_Data>:
}

void LCD_Write_Data(int data) {
	IOWR_16DIRECT(LCD_CTRL_BASE,LCD_DATA_REG,data);
    1074:	00804034 	movhi	r2,256
    1078:	10c41904 	addi	r3,r2,4196
    107c:	1900002d 	sthio	r4,0(r3)
	usleep(10);
    1080:	01000284 	movi	r4,10
    1084:	000f0441 	jmpi	f044 <usleep>

00001088 <init_LCD>:
}


void init_LCD() {
    1088:	defff604 	addi	sp,sp,-40
    108c:	dd800615 	stw	r22,24(sp)
    1090:	dd000415 	stw	r20,16(sp)
    1094:	dfc00915 	stw	ra,36(sp)
    1098:	df000815 	stw	fp,32(sp)
    109c:	ddc00715 	stw	r23,28(sp)
    10a0:	dd400515 	stw	r21,20(sp)
    10a4:	dcc00315 	stw	r19,12(sp)
    10a8:	dc800215 	stw	r18,8(sp)
    10ac:	dc400115 	stw	r17,4(sp)
    10b0:	dc000015 	stw	r16,0(sp)
	IOWR_16DIRECT(LCD_CTRL_BASE,LCD_CONTROL_REG,
    10b4:	05800084 	movi	r22,2
    10b8:	05004034 	movhi	r20,256
    10bc:	a5841a2d 	sthio	r22,4200(r20)

unsigned short LCD_width;
unsigned short LCD_height;

void LCD_Write_Command(int command) {
	IOWR_16DIRECT(LCD_CTRL_BASE,LCD_COMMAND_REG,command);
    10c0:	a4841804 	addi	r18,r20,4192
    10c4:	00800a04 	movi	r2,40
    10c8:	9080002d 	sthio	r2,0(r18)
	usleep(10);
    10cc:	04000284 	movi	r16,10
    10d0:	8009883a 	mov	r4,r16
    10d4:	000f0440 	call	f044 <usleep>

unsigned short LCD_width;
unsigned short LCD_height;

void LCD_Write_Command(int command) {
	IOWR_16DIRECT(LCD_CTRL_BASE,LCD_COMMAND_REG,command);
    10d8:	07000444 	movi	fp,17
    10dc:	9700002d 	sthio	fp,0(r18)
	usleep(10);
    10e0:	8009883a 	mov	r4,r16
    10e4:	000f0440 	call	f044 <usleep>
}

void LCD_Write_Data(int data) {
	IOWR_16DIRECT(LCD_CTRL_BASE,LCD_DATA_REG,data);
    10e8:	0027883a 	mov	r19,zero
    10ec:	a4441904 	addi	r17,r20,4196
    10f0:	8cc0002d 	sthio	r19,0(r17)
	usleep(10);
    10f4:	8009883a 	mov	r4,r16
    10f8:	000f0440 	call	f044 <usleep>

unsigned short LCD_width;
unsigned short LCD_height;

void LCD_Write_Command(int command) {
	IOWR_16DIRECT(LCD_CTRL_BASE,LCD_COMMAND_REG,command);
    10fc:	00c032c4 	movi	r3,203
    1100:	90c0002d 	sthio	r3,0(r18)
	usleep(10);
    1104:	8009883a 	mov	r4,r16
    1108:	000f0440 	call	f044 <usleep>
}

void LCD_Write_Data(int data) {
	IOWR_16DIRECT(LCD_CTRL_BASE,LCD_DATA_REG,data);
    110c:	01000e44 	movi	r4,57
    1110:	8900002d 	sthio	r4,0(r17)
	usleep(10);
    1114:	8009883a 	mov	r4,r16
    1118:	000f0440 	call	f044 <usleep>
	IOWR_16DIRECT(LCD_CTRL_BASE,LCD_COMMAND_REG,command);
	usleep(10);
}

void LCD_Write_Data(int data) {
	IOWR_16DIRECT(LCD_CTRL_BASE,LCD_DATA_REG,data);
    111c:	01400b04 	movi	r5,44
    1120:	8940002d 	sthio	r5,0(r17)
	usleep(10);
    1124:	8009883a 	mov	r4,r16
    1128:	000f0440 	call	f044 <usleep>
	IOWR_16DIRECT(LCD_CTRL_BASE,LCD_COMMAND_REG,command);
	usleep(10);
}

void LCD_Write_Data(int data) {
	IOWR_16DIRECT(LCD_CTRL_BASE,LCD_DATA_REG,data);
    112c:	8cc0002d 	sthio	r19,0(r17)
	usleep(10);
    1130:	8009883a 	mov	r4,r16
    1134:	000f0440 	call	f044 <usleep>
	IOWR_16DIRECT(LCD_CTRL_BASE,LCD_COMMAND_REG,command);
	usleep(10);
}

void LCD_Write_Data(int data) {
	IOWR_16DIRECT(LCD_CTRL_BASE,LCD_DATA_REG,data);
    1138:	01800d04 	movi	r6,52
    113c:	8980002d 	sthio	r6,0(r17)
	usleep(10);
    1140:	8009883a 	mov	r4,r16
    1144:	000f0440 	call	f044 <usleep>
	IOWR_16DIRECT(LCD_CTRL_BASE,LCD_COMMAND_REG,command);
	usleep(10);
}

void LCD_Write_Data(int data) {
	IOWR_16DIRECT(LCD_CTRL_BASE,LCD_DATA_REG,data);
    1148:	8d80002d 	sthio	r22,0(r17)
	usleep(10);
    114c:	8009883a 	mov	r4,r16
    1150:	000f0440 	call	f044 <usleep>

unsigned short LCD_width;
unsigned short LCD_height;

void LCD_Write_Command(int command) {
	IOWR_16DIRECT(LCD_CTRL_BASE,LCD_COMMAND_REG,command);
    1154:	01c033c4 	movi	r7,207
    1158:	91c0002d 	sthio	r7,0(r18)
	usleep(10);
    115c:	8009883a 	mov	r4,r16
    1160:	000f0440 	call	f044 <usleep>
}

void LCD_Write_Data(int data) {
	IOWR_16DIRECT(LCD_CTRL_BASE,LCD_DATA_REG,data);
    1164:	8cc0002d 	sthio	r19,0(r17)
	usleep(10);
    1168:	8009883a 	mov	r4,r16
    116c:	000f0440 	call	f044 <usleep>
	IOWR_16DIRECT(LCD_CTRL_BASE,LCD_COMMAND_REG,command);
	usleep(10);
}

void LCD_Write_Data(int data) {
	IOWR_16DIRECT(LCD_CTRL_BASE,LCD_DATA_REG,data);
    1170:	05c02044 	movi	r23,129
    1174:	8dc0002d 	sthio	r23,0(r17)
	usleep(10);
    1178:	8009883a 	mov	r4,r16
    117c:	000f0440 	call	f044 <usleep>
	IOWR_16DIRECT(LCD_CTRL_BASE,LCD_COMMAND_REG,command);
	usleep(10);
}

void LCD_Write_Data(int data) {
	IOWR_16DIRECT(LCD_CTRL_BASE,LCD_DATA_REG,data);
    1180:	02000c04 	movi	r8,48
    1184:	8a00002d 	sthio	r8,0(r17)
	usleep(10);
    1188:	8009883a 	mov	r4,r16
    118c:	000f0440 	call	f044 <usleep>

unsigned short LCD_width;
unsigned short LCD_height;

void LCD_Write_Command(int command) {
	IOWR_16DIRECT(LCD_CTRL_BASE,LCD_COMMAND_REG,command);
    1190:	02403a04 	movi	r9,232
    1194:	9240002d 	sthio	r9,0(r18)
	usleep(10);
    1198:	8009883a 	mov	r4,r16
    119c:	000f0440 	call	f044 <usleep>
}

void LCD_Write_Data(int data) {
	IOWR_16DIRECT(LCD_CTRL_BASE,LCD_DATA_REG,data);
    11a0:	02802144 	movi	r10,133
    11a4:	8a80002d 	sthio	r10,0(r17)
	usleep(10);
    11a8:	8009883a 	mov	r4,r16
    11ac:	000f0440 	call	f044 <usleep>
	IOWR_16DIRECT(LCD_CTRL_BASE,LCD_COMMAND_REG,command);
	usleep(10);
}

void LCD_Write_Data(int data) {
	IOWR_16DIRECT(LCD_CTRL_BASE,LCD_DATA_REG,data);
    11b0:	05400044 	movi	r21,1
    11b4:	8d40002d 	sthio	r21,0(r17)
	usleep(10);
    11b8:	8009883a 	mov	r4,r16
    11bc:	000f0440 	call	f044 <usleep>
	IOWR_16DIRECT(LCD_CTRL_BASE,LCD_COMMAND_REG,command);
	usleep(10);
}

void LCD_Write_Data(int data) {
	IOWR_16DIRECT(LCD_CTRL_BASE,LCD_DATA_REG,data);
    11c0:	02c01e44 	movi	r11,121
    11c4:	8ac0002d 	sthio	r11,0(r17)
	usleep(10);
    11c8:	8009883a 	mov	r4,r16
    11cc:	000f0440 	call	f044 <usleep>

unsigned short LCD_width;
unsigned short LCD_height;

void LCD_Write_Command(int command) {
	IOWR_16DIRECT(LCD_CTRL_BASE,LCD_COMMAND_REG,command);
    11d0:	03003a84 	movi	r12,234
    11d4:	9300002d 	sthio	r12,0(r18)
	usleep(10);
    11d8:	8009883a 	mov	r4,r16
    11dc:	000f0440 	call	f044 <usleep>
}

void LCD_Write_Data(int data) {
	IOWR_16DIRECT(LCD_CTRL_BASE,LCD_DATA_REG,data);
    11e0:	8cc0002d 	sthio	r19,0(r17)
	usleep(10);
    11e4:	8009883a 	mov	r4,r16
    11e8:	000f0440 	call	f044 <usleep>
	IOWR_16DIRECT(LCD_CTRL_BASE,LCD_COMMAND_REG,command);
	usleep(10);
}

void LCD_Write_Data(int data) {
	IOWR_16DIRECT(LCD_CTRL_BASE,LCD_DATA_REG,data);
    11ec:	8cc0002d 	sthio	r19,0(r17)
	usleep(10);
    11f0:	8009883a 	mov	r4,r16
    11f4:	000f0440 	call	f044 <usleep>
	IOWR_16DIRECT(LCD_CTRL_BASE,LCD_COMMAND_REG,command);
	usleep(10);
}

void LCD_Write_Data(int data) {
	IOWR_16DIRECT(LCD_CTRL_BASE,LCD_DATA_REG,data);
    11f8:	03401904 	movi	r13,100
    11fc:	8b40002d 	sthio	r13,0(r17)
	usleep(10);
    1200:	8009883a 	mov	r4,r16
    1204:	000f0440 	call	f044 <usleep>
	IOWR_16DIRECT(LCD_CTRL_BASE,LCD_COMMAND_REG,command);
	usleep(10);
}

void LCD_Write_Data(int data) {
	IOWR_16DIRECT(LCD_CTRL_BASE,LCD_DATA_REG,data);
    1208:	038000c4 	movi	r14,3
    120c:	8b80002d 	sthio	r14,0(r17)
	usleep(10);
    1210:	8009883a 	mov	r4,r16
    1214:	000f0440 	call	f044 <usleep>
	IOWR_16DIRECT(LCD_CTRL_BASE,LCD_COMMAND_REG,command);
	usleep(10);
}

void LCD_Write_Data(int data) {
	IOWR_16DIRECT(LCD_CTRL_BASE,LCD_DATA_REG,data);
    1218:	03c00484 	movi	r15,18
    121c:	8bc0002d 	sthio	r15,0(r17)
	usleep(10);
    1220:	8009883a 	mov	r4,r16
    1224:	000f0440 	call	f044 <usleep>
	IOWR_16DIRECT(LCD_CTRL_BASE,LCD_COMMAND_REG,command);
	usleep(10);
}

void LCD_Write_Data(int data) {
	IOWR_16DIRECT(LCD_CTRL_BASE,LCD_DATA_REG,data);
    1228:	8dc0002d 	sthio	r23,0(r17)
	usleep(10);
    122c:	8009883a 	mov	r4,r16
    1230:	000f0440 	call	f044 <usleep>

unsigned short LCD_width;
unsigned short LCD_height;

void LCD_Write_Command(int command) {
	IOWR_16DIRECT(LCD_CTRL_BASE,LCD_COMMAND_REG,command);
    1234:	00803dc4 	movi	r2,247
    1238:	9080002d 	sthio	r2,0(r18)
	usleep(10);
    123c:	8009883a 	mov	r4,r16
    1240:	000f0440 	call	f044 <usleep>
}

void LCD_Write_Data(int data) {
	IOWR_16DIRECT(LCD_CTRL_BASE,LCD_DATA_REG,data);
    1244:	00c00804 	movi	r3,32
    1248:	88c0002d 	sthio	r3,0(r17)
	usleep(10);
    124c:	8009883a 	mov	r4,r16
    1250:	000f0440 	call	f044 <usleep>

unsigned short LCD_width;
unsigned short LCD_height;

void LCD_Write_Command(int command) {
	IOWR_16DIRECT(LCD_CTRL_BASE,LCD_COMMAND_REG,command);
    1254:	01003004 	movi	r4,192
    1258:	9100002d 	sthio	r4,0(r18)
	usleep(10);
    125c:	8009883a 	mov	r4,r16
    1260:	000f0440 	call	f044 <usleep>
}

void LCD_Write_Data(int data) {
	IOWR_16DIRECT(LCD_CTRL_BASE,LCD_DATA_REG,data);
    1264:	05c00984 	movi	r23,38
    1268:	8dc0002d 	sthio	r23,0(r17)
	usleep(10);
    126c:	8009883a 	mov	r4,r16
    1270:	000f0440 	call	f044 <usleep>
	IOWR_16DIRECT(LCD_CTRL_BASE,LCD_COMMAND_REG,command);
	usleep(10);
}

void LCD_Write_Data(int data) {
	IOWR_16DIRECT(LCD_CTRL_BASE,LCD_DATA_REG,data);
    1274:	01400104 	movi	r5,4
    1278:	8940002d 	sthio	r5,0(r17)
	usleep(10);
    127c:	8009883a 	mov	r4,r16
    1280:	000f0440 	call	f044 <usleep>

unsigned short LCD_width;
unsigned short LCD_height;

void LCD_Write_Command(int command) {
	IOWR_16DIRECT(LCD_CTRL_BASE,LCD_COMMAND_REG,command);
    1284:	01803044 	movi	r6,193
    1288:	9180002d 	sthio	r6,0(r18)
	usleep(10);
    128c:	8009883a 	mov	r4,r16
    1290:	000f0440 	call	f044 <usleep>
}

void LCD_Write_Data(int data) {
	IOWR_16DIRECT(LCD_CTRL_BASE,LCD_DATA_REG,data);
    1294:	8f00002d 	sthio	fp,0(r17)
	usleep(10);
    1298:	8009883a 	mov	r4,r16
    129c:	000f0440 	call	f044 <usleep>

unsigned short LCD_width;
unsigned short LCD_height;

void LCD_Write_Command(int command) {
	IOWR_16DIRECT(LCD_CTRL_BASE,LCD_COMMAND_REG,command);
    12a0:	07003144 	movi	fp,197
    12a4:	9700002d 	sthio	fp,0(r18)
	usleep(10);
    12a8:	8009883a 	mov	r4,r16
    12ac:	000f0440 	call	f044 <usleep>
}

void LCD_Write_Data(int data) {
	IOWR_16DIRECT(LCD_CTRL_BASE,LCD_DATA_REG,data);
    12b0:	01c00d44 	movi	r7,53
    12b4:	89c0002d 	sthio	r7,0(r17)
	usleep(10);
    12b8:	8009883a 	mov	r4,r16
    12bc:	000f0440 	call	f044 <usleep>
	IOWR_16DIRECT(LCD_CTRL_BASE,LCD_COMMAND_REG,command);
	usleep(10);
}

void LCD_Write_Data(int data) {
	IOWR_16DIRECT(LCD_CTRL_BASE,LCD_DATA_REG,data);
    12c0:	02000f84 	movi	r8,62
    12c4:	8a00002d 	sthio	r8,0(r17)
	usleep(10);
    12c8:	8009883a 	mov	r4,r16
    12cc:	000f0440 	call	f044 <usleep>

unsigned short LCD_width;
unsigned short LCD_height;

void LCD_Write_Command(int command) {
	IOWR_16DIRECT(LCD_CTRL_BASE,LCD_COMMAND_REG,command);
    12d0:	024031c4 	movi	r9,199
    12d4:	9240002d 	sthio	r9,0(r18)
	usleep(10);
    12d8:	8009883a 	mov	r4,r16
    12dc:	000f0440 	call	f044 <usleep>
}

void LCD_Write_Data(int data) {
	IOWR_16DIRECT(LCD_CTRL_BASE,LCD_DATA_REG,data);
    12e0:	02802f84 	movi	r10,190
    12e4:	8a80002d 	sthio	r10,0(r17)
	usleep(10);
    12e8:	8009883a 	mov	r4,r16
    12ec:	000f0440 	call	f044 <usleep>

unsigned short LCD_width;
unsigned short LCD_height;

void LCD_Write_Command(int command) {
	IOWR_16DIRECT(LCD_CTRL_BASE,LCD_COMMAND_REG,command);
    12f0:	02c02c44 	movi	r11,177
    12f4:	92c0002d 	sthio	r11,0(r18)
	usleep(10);
    12f8:	8009883a 	mov	r4,r16
    12fc:	000f0440 	call	f044 <usleep>
}

void LCD_Write_Data(int data) {
	IOWR_16DIRECT(LCD_CTRL_BASE,LCD_DATA_REG,data);
    1300:	8cc0002d 	sthio	r19,0(r17)
	usleep(10);
    1304:	8009883a 	mov	r4,r16
    1308:	000f0440 	call	f044 <usleep>
	IOWR_16DIRECT(LCD_CTRL_BASE,LCD_COMMAND_REG,command);
	usleep(10);
}

void LCD_Write_Data(int data) {
	IOWR_16DIRECT(LCD_CTRL_BASE,LCD_DATA_REG,data);
    130c:	03000404 	movi	r12,16
    1310:	8b00002d 	sthio	r12,0(r17)
	usleep(10);
    1314:	8009883a 	mov	r4,r16
    1318:	000f0440 	call	f044 <usleep>

unsigned short LCD_width;
unsigned short LCD_height;

void LCD_Write_Command(int command) {
	IOWR_16DIRECT(LCD_CTRL_BASE,LCD_COMMAND_REG,command);
    131c:	03400e84 	movi	r13,58
    1320:	9340002d 	sthio	r13,0(r18)
	usleep(10);
    1324:	8009883a 	mov	r4,r16
    1328:	000f0440 	call	f044 <usleep>
}

void LCD_Write_Data(int data) {
	IOWR_16DIRECT(LCD_CTRL_BASE,LCD_DATA_REG,data);
    132c:	03801544 	movi	r14,85
    1330:	8b80002d 	sthio	r14,0(r17)
	usleep(10);
    1334:	8009883a 	mov	r4,r16
    1338:	000f0440 	call	f044 <usleep>

unsigned short LCD_width;
unsigned short LCD_height;

void LCD_Write_Command(int command) {
	IOWR_16DIRECT(LCD_CTRL_BASE,LCD_COMMAND_REG,command);
    133c:	03c02d84 	movi	r15,182
    1340:	93c0002d 	sthio	r15,0(r18)
	usleep(10);
    1344:	8009883a 	mov	r4,r16
    1348:	000f0440 	call	f044 <usleep>
}

void LCD_Write_Data(int data) {
	IOWR_16DIRECT(LCD_CTRL_BASE,LCD_DATA_REG,data);
    134c:	8c00002d 	sthio	r16,0(r17)
	usleep(10);
    1350:	8009883a 	mov	r4,r16
    1354:	000f0440 	call	f044 <usleep>
	IOWR_16DIRECT(LCD_CTRL_BASE,LCD_COMMAND_REG,command);
	usleep(10);
}

void LCD_Write_Data(int data) {
	IOWR_16DIRECT(LCD_CTRL_BASE,LCD_DATA_REG,data);
    1358:	00802884 	movi	r2,162
    135c:	8880002d 	sthio	r2,0(r17)
	usleep(10);
    1360:	8009883a 	mov	r4,r16
    1364:	000f0440 	call	f044 <usleep>

unsigned short LCD_width;
unsigned short LCD_height;

void LCD_Write_Command(int command) {
	IOWR_16DIRECT(LCD_CTRL_BASE,LCD_COMMAND_REG,command);
    1368:	00c03c84 	movi	r3,242
    136c:	90c0002d 	sthio	r3,0(r18)
	usleep(10);
    1370:	8009883a 	mov	r4,r16
    1374:	000f0440 	call	f044 <usleep>
}

void LCD_Write_Data(int data) {
	IOWR_16DIRECT(LCD_CTRL_BASE,LCD_DATA_REG,data);
    1378:	8d80002d 	sthio	r22,0(r17)
	usleep(10);
    137c:	8009883a 	mov	r4,r16
    1380:	000f0440 	call	f044 <usleep>

unsigned short LCD_width;
unsigned short LCD_height;

void LCD_Write_Command(int command) {
	IOWR_16DIRECT(LCD_CTRL_BASE,LCD_COMMAND_REG,command);
    1384:	95c0002d 	sthio	r23,0(r18)
	usleep(10);
    1388:	8009883a 	mov	r4,r16
    138c:	000f0440 	call	f044 <usleep>
}

void LCD_Write_Data(int data) {
	IOWR_16DIRECT(LCD_CTRL_BASE,LCD_DATA_REG,data);
    1390:	8d40002d 	sthio	r21,0(r17)
	usleep(10);
    1394:	8009883a 	mov	r4,r16
    1398:	000f0440 	call	f044 <usleep>

unsigned short LCD_width;
unsigned short LCD_height;

void LCD_Write_Command(int command) {
	IOWR_16DIRECT(LCD_CTRL_BASE,LCD_COMMAND_REG,command);
    139c:	05800d84 	movi	r22,54
    13a0:	9580002d 	sthio	r22,0(r18)
	usleep(10);
    13a4:	8009883a 	mov	r4,r16
    13a8:	000f0440 	call	f044 <usleep>
}

void LCD_Write_Data(int data) {
	IOWR_16DIRECT(LCD_CTRL_BASE,LCD_DATA_REG,data);
    13ac:	8cc0002d 	sthio	r19,0(r17)
	usleep(10);
    13b0:	8009883a 	mov	r4,r16
    13b4:	000f0440 	call	f044 <usleep>

unsigned short LCD_width;
unsigned short LCD_height;

void LCD_Write_Command(int command) {
	IOWR_16DIRECT(LCD_CTRL_BASE,LCD_COMMAND_REG,command);
    13b8:	01000a84 	movi	r4,42
    13bc:	9100002d 	sthio	r4,0(r18)
	usleep(10);
    13c0:	8009883a 	mov	r4,r16
    13c4:	000f0440 	call	f044 <usleep>
}

void LCD_Write_Data(int data) {
	IOWR_16DIRECT(LCD_CTRL_BASE,LCD_DATA_REG,data);
    13c8:	8cc0002d 	sthio	r19,0(r17)
	usleep(10);
    13cc:	8009883a 	mov	r4,r16
    13d0:	000f0440 	call	f044 <usleep>
	IOWR_16DIRECT(LCD_CTRL_BASE,LCD_COMMAND_REG,command);
	usleep(10);
}

void LCD_Write_Data(int data) {
	IOWR_16DIRECT(LCD_CTRL_BASE,LCD_DATA_REG,data);
    13d4:	8cc0002d 	sthio	r19,0(r17)
	usleep(10);
    13d8:	8009883a 	mov	r4,r16
    13dc:	000f0440 	call	f044 <usleep>
	IOWR_16DIRECT(LCD_CTRL_BASE,LCD_COMMAND_REG,command);
	usleep(10);
}

void LCD_Write_Data(int data) {
	IOWR_16DIRECT(LCD_CTRL_BASE,LCD_DATA_REG,data);
    13e0:	8cc0002d 	sthio	r19,0(r17)
	usleep(10);
    13e4:	8009883a 	mov	r4,r16
    13e8:	000f0440 	call	f044 <usleep>
	IOWR_16DIRECT(LCD_CTRL_BASE,LCD_COMMAND_REG,command);
	usleep(10);
}

void LCD_Write_Data(int data) {
	IOWR_16DIRECT(LCD_CTRL_BASE,LCD_DATA_REG,data);
    13ec:	05c03bc4 	movi	r23,239
    13f0:	8dc0002d 	sthio	r23,0(r17)
	usleep(10);
    13f4:	8009883a 	mov	r4,r16
    13f8:	000f0440 	call	f044 <usleep>

unsigned short LCD_width;
unsigned short LCD_height;

void LCD_Write_Command(int command) {
	IOWR_16DIRECT(LCD_CTRL_BASE,LCD_COMMAND_REG,command);
    13fc:	01400ac4 	movi	r5,43
    1400:	9140002d 	sthio	r5,0(r18)
	usleep(10);
    1404:	8009883a 	mov	r4,r16
    1408:	000f0440 	call	f044 <usleep>
}

void LCD_Write_Data(int data) {
	IOWR_16DIRECT(LCD_CTRL_BASE,LCD_DATA_REG,data);
    140c:	8cc0002d 	sthio	r19,0(r17)
	usleep(10);
    1410:	8009883a 	mov	r4,r16
    1414:	000f0440 	call	f044 <usleep>
	IOWR_16DIRECT(LCD_CTRL_BASE,LCD_COMMAND_REG,command);
	usleep(10);
}

void LCD_Write_Data(int data) {
	IOWR_16DIRECT(LCD_CTRL_BASE,LCD_DATA_REG,data);
    1418:	8cc0002d 	sthio	r19,0(r17)
	usleep(10);
    141c:	8009883a 	mov	r4,r16
    1420:	000f0440 	call	f044 <usleep>
	IOWR_16DIRECT(LCD_CTRL_BASE,LCD_COMMAND_REG,command);
	usleep(10);
}

void LCD_Write_Data(int data) {
	IOWR_16DIRECT(LCD_CTRL_BASE,LCD_DATA_REG,data);
    1424:	8d40002d 	sthio	r21,0(r17)
	usleep(10);
    1428:	8009883a 	mov	r4,r16
    142c:	000f0440 	call	f044 <usleep>
	IOWR_16DIRECT(LCD_CTRL_BASE,LCD_COMMAND_REG,command);
	usleep(10);
}

void LCD_Write_Data(int data) {
	IOWR_16DIRECT(LCD_CTRL_BASE,LCD_DATA_REG,data);
    1430:	04c00fc4 	movi	r19,63
    1434:	8cc0002d 	sthio	r19,0(r17)
	usleep(10);
    1438:	8009883a 	mov	r4,r16
    143c:	000f0440 	call	f044 <usleep>
	LCD_Write_Command(0x002B);	//pageaddressset
	LCD_Write_Data(0x0000);
	LCD_Write_Data(0x0000);		//start0x0000
	LCD_Write_Data(0x0001);
	LCD_Write_Data(0x003F);		//end0x013F
	IOWR_32DIRECT(LCD_CTRL_BASE,LCD_NR_PIX_LINE_REG,240);
    1440:	04403c04 	movi	r17,240
    1444:	a4441d35 	stwio	r17,4212(r20)
	LCD_width = 240;
	LCD_height = 320;
    1448:	05005004 	movi	r20,320
	LCD_Write_Data(0x0000);
	LCD_Write_Data(0x0000);		//start0x0000
	LCD_Write_Data(0x0001);
	LCD_Write_Data(0x003F);		//end0x013F
	IOWR_32DIRECT(LCD_CTRL_BASE,LCD_NR_PIX_LINE_REG,240);
	LCD_width = 240;
    144c:	d467118d 	sth	r17,-25530(gp)
	LCD_height = 320;
    1450:	d527110d 	sth	r20,-25532(gp)

unsigned short LCD_width;
unsigned short LCD_height;

void LCD_Write_Command(int command) {
	IOWR_16DIRECT(LCD_CTRL_BASE,LCD_COMMAND_REG,command);
    1454:	05400a44 	movi	r21,41
    1458:	9540002d 	sthio	r21,0(r18)
	usleep(10);
    145c:	8009883a 	mov	r4,r16
	LCD_height = 320;


	LCD_Write_Command(0x0029);

}
    1460:	dfc00917 	ldw	ra,36(sp)
    1464:	df000817 	ldw	fp,32(sp)
    1468:	ddc00717 	ldw	r23,28(sp)
    146c:	dd800617 	ldw	r22,24(sp)
    1470:	dd400517 	ldw	r21,20(sp)
    1474:	dd000417 	ldw	r20,16(sp)
    1478:	dcc00317 	ldw	r19,12(sp)
    147c:	dc800217 	ldw	r18,8(sp)
    1480:	dc400117 	ldw	r17,4(sp)
    1484:	dc000017 	ldw	r16,0(sp)
    1488:	dec00a04 	addi	sp,sp,40
unsigned short LCD_width;
unsigned short LCD_height;

void LCD_Write_Command(int command) {
	IOWR_16DIRECT(LCD_CTRL_BASE,LCD_COMMAND_REG,command);
	usleep(10);
    148c:	000f0441 	jmpi	f044 <usleep>

00001490 <transfer_LCD_no_dma>:

}

void transfer_LCD_no_dma( void* array,
		                  int width,
		                  int height) {
    1490:	defff804 	addi	sp,sp,-32
	unsigned short *data_array = (unsigned short *)array;
	unsigned int pixels;
	IOWR_32DIRECT(LCD_CTRL_BASE,LCD_Pict_width_reg,width);
    1494:	00804034 	movhi	r2,256

}

void transfer_LCD_no_dma( void* array,
		                  int width,
		                  int height) {
    1498:	dd400515 	stw	r21,20(sp)
    149c:	dfc00715 	stw	ra,28(sp)
    14a0:	dd800615 	stw	r22,24(sp)
    14a4:	dd000415 	stw	r20,16(sp)
    14a8:	dcc00315 	stw	r19,12(sp)
    14ac:	dc800215 	stw	r18,8(sp)
    14b0:	dc400115 	stw	r17,4(sp)
    14b4:	dc000015 	stw	r16,0(sp)
    14b8:	202b883a 	mov	r21,r4
	unsigned short *data_array = (unsigned short *)array;
	unsigned int pixels;
	IOWR_32DIRECT(LCD_CTRL_BASE,LCD_Pict_width_reg,width);
    14bc:	10c41e04 	addi	r3,r2,4216
    14c0:	19400035 	stwio	r5,0(r3)

unsigned short LCD_width;
unsigned short LCD_height;

void LCD_Write_Command(int command) {
	IOWR_16DIRECT(LCD_CTRL_BASE,LCD_COMMAND_REG,command);
    14c4:	01004034 	movhi	r4,256
    14c8:	21c41804 	addi	r7,r4,4192
    14cc:	02000b04 	movi	r8,44
    14d0:	3a00002d 	sthio	r8,0(r7)
		                  int height) {
	unsigned short *data_array = (unsigned short *)array;
	unsigned int pixels;
	IOWR_32DIRECT(LCD_CTRL_BASE,LCD_Pict_width_reg,width);
	LCD_Write_Command(0x002C); 	//command to begin writing to frame memory
	for (pixels = 0 ; pixels < width*height ; pixels++)
    14d4:	29a7383a 	mul	r19,r5,r6
unsigned short LCD_width;
unsigned short LCD_height;

void LCD_Write_Command(int command) {
	IOWR_16DIRECT(LCD_CTRL_BASE,LCD_COMMAND_REG,command);
	usleep(10);
    14d8:	01000284 	movi	r4,10
    14dc:	000f0440 	call	f044 <usleep>
		                  int height) {
	unsigned short *data_array = (unsigned short *)array;
	unsigned int pixels;
	IOWR_32DIRECT(LCD_CTRL_BASE,LCD_Pict_width_reg,width);
	LCD_Write_Command(0x002C); 	//command to begin writing to frame memory
	for (pixels = 0 ; pixels < width*height ; pixels++)
    14e0:	98006526 	beq	r19,zero,1678 <transfer_LCD_no_dma+0x1e8>
	IOWR_16DIRECT(LCD_CTRL_BASE,LCD_COMMAND_REG,command);
	usleep(10);
}

void LCD_Write_Data(int data) {
	IOWR_16DIRECT(LCD_CTRL_BASE,LCD_DATA_REG,data);
    14e4:	a940000b 	ldhu	r5,0(r21)
    14e8:	9d3fffc4 	addi	r20,r19,-1
    14ec:	04804034 	movhi	r18,256
    14f0:	94841904 	addi	r18,r18,4196
    14f4:	a50001cc 	andi	r20,r20,7
    14f8:	9140002d 	sthio	r5,0(r18)
	usleep(10);
    14fc:	01000284 	movi	r4,10
		                  int height) {
	unsigned short *data_array = (unsigned short *)array;
	unsigned int pixels;
	IOWR_32DIRECT(LCD_CTRL_BASE,LCD_Pict_width_reg,width);
	LCD_Write_Command(0x002C); 	//command to begin writing to frame memory
	for (pixels = 0 ; pixels < width*height ; pixels++)
    1500:	04400044 	movi	r17,1
	usleep(10);
}

void LCD_Write_Data(int data) {
	IOWR_16DIRECT(LCD_CTRL_BASE,LCD_DATA_REG,data);
	usleep(10);
    1504:	000f0440 	call	f044 <usleep>
    1508:	ac000084 	addi	r16,r21,2
		                  int height) {
	unsigned short *data_array = (unsigned short *)array;
	unsigned int pixels;
	IOWR_32DIRECT(LCD_CTRL_BASE,LCD_Pict_width_reg,width);
	LCD_Write_Command(0x002C); 	//command to begin writing to frame memory
	for (pixels = 0 ; pixels < width*height ; pixels++)
    150c:	8cc05a26 	beq	r17,r19,1678 <transfer_LCD_no_dma+0x1e8>
    1510:	a0003626 	beq	r20,zero,15ec <transfer_LCD_no_dma+0x15c>
    1514:	a4402e26 	beq	r20,r17,15d0 <transfer_LCD_no_dma+0x140>
    1518:	05800084 	movi	r22,2
    151c:	a5802626 	beq	r20,r22,15b8 <transfer_LCD_no_dma+0x128>
    1520:	018000c4 	movi	r6,3
    1524:	a1801e26 	beq	r20,r6,15a0 <transfer_LCD_no_dma+0x110>
    1528:	02400104 	movi	r9,4
    152c:	a2401626 	beq	r20,r9,1588 <transfer_LCD_no_dma+0xf8>
    1530:	02800144 	movi	r10,5
    1534:	a2800e26 	beq	r20,r10,1570 <transfer_LCD_no_dma+0xe0>
    1538:	02c00184 	movi	r11,6
    153c:	a2c00626 	beq	r20,r11,1558 <transfer_LCD_no_dma+0xc8>
	IOWR_16DIRECT(LCD_CTRL_BASE,LCD_COMMAND_REG,command);
	usleep(10);
}

void LCD_Write_Data(int data) {
	IOWR_16DIRECT(LCD_CTRL_BASE,LCD_DATA_REG,data);
    1540:	8300000b 	ldhu	r12,0(r16)
    1544:	9300002d 	sthio	r12,0(r18)
	usleep(10);
    1548:	01000284 	movi	r4,10
    154c:	000f0440 	call	f044 <usleep>
		                  int height) {
	unsigned short *data_array = (unsigned short *)array;
	unsigned int pixels;
	IOWR_32DIRECT(LCD_CTRL_BASE,LCD_Pict_width_reg,width);
	LCD_Write_Command(0x002C); 	//command to begin writing to frame memory
	for (pixels = 0 ; pixels < width*height ; pixels++)
    1550:	b023883a 	mov	r17,r22
    1554:	ac000104 	addi	r16,r21,4
	IOWR_16DIRECT(LCD_CTRL_BASE,LCD_COMMAND_REG,command);
	usleep(10);
}

void LCD_Write_Data(int data) {
	IOWR_16DIRECT(LCD_CTRL_BASE,LCD_DATA_REG,data);
    1558:	8340000b 	ldhu	r13,0(r16)
    155c:	9340002d 	sthio	r13,0(r18)
	usleep(10);
    1560:	01000284 	movi	r4,10
    1564:	000f0440 	call	f044 <usleep>
		                  int height) {
	unsigned short *data_array = (unsigned short *)array;
	unsigned int pixels;
	IOWR_32DIRECT(LCD_CTRL_BASE,LCD_Pict_width_reg,width);
	LCD_Write_Command(0x002C); 	//command to begin writing to frame memory
	for (pixels = 0 ; pixels < width*height ; pixels++)
    1568:	8c400044 	addi	r17,r17,1
    156c:	84000084 	addi	r16,r16,2
	IOWR_16DIRECT(LCD_CTRL_BASE,LCD_COMMAND_REG,command);
	usleep(10);
}

void LCD_Write_Data(int data) {
	IOWR_16DIRECT(LCD_CTRL_BASE,LCD_DATA_REG,data);
    1570:	8380000b 	ldhu	r14,0(r16)
    1574:	9380002d 	sthio	r14,0(r18)
	usleep(10);
    1578:	01000284 	movi	r4,10
    157c:	000f0440 	call	f044 <usleep>
		                  int height) {
	unsigned short *data_array = (unsigned short *)array;
	unsigned int pixels;
	IOWR_32DIRECT(LCD_CTRL_BASE,LCD_Pict_width_reg,width);
	LCD_Write_Command(0x002C); 	//command to begin writing to frame memory
	for (pixels = 0 ; pixels < width*height ; pixels++)
    1580:	8c400044 	addi	r17,r17,1
    1584:	84000084 	addi	r16,r16,2
	IOWR_16DIRECT(LCD_CTRL_BASE,LCD_COMMAND_REG,command);
	usleep(10);
}

void LCD_Write_Data(int data) {
	IOWR_16DIRECT(LCD_CTRL_BASE,LCD_DATA_REG,data);
    1588:	83c0000b 	ldhu	r15,0(r16)
    158c:	93c0002d 	sthio	r15,0(r18)
	usleep(10);
    1590:	01000284 	movi	r4,10
    1594:	000f0440 	call	f044 <usleep>
		                  int height) {
	unsigned short *data_array = (unsigned short *)array;
	unsigned int pixels;
	IOWR_32DIRECT(LCD_CTRL_BASE,LCD_Pict_width_reg,width);
	LCD_Write_Command(0x002C); 	//command to begin writing to frame memory
	for (pixels = 0 ; pixels < width*height ; pixels++)
    1598:	8c400044 	addi	r17,r17,1
    159c:	84000084 	addi	r16,r16,2
	IOWR_16DIRECT(LCD_CTRL_BASE,LCD_COMMAND_REG,command);
	usleep(10);
}

void LCD_Write_Data(int data) {
	IOWR_16DIRECT(LCD_CTRL_BASE,LCD_DATA_REG,data);
    15a0:	87c0000b 	ldhu	ra,0(r16)
    15a4:	97c0002d 	sthio	ra,0(r18)
	usleep(10);
    15a8:	01000284 	movi	r4,10
    15ac:	000f0440 	call	f044 <usleep>
		                  int height) {
	unsigned short *data_array = (unsigned short *)array;
	unsigned int pixels;
	IOWR_32DIRECT(LCD_CTRL_BASE,LCD_Pict_width_reg,width);
	LCD_Write_Command(0x002C); 	//command to begin writing to frame memory
	for (pixels = 0 ; pixels < width*height ; pixels++)
    15b0:	8c400044 	addi	r17,r17,1
    15b4:	84000084 	addi	r16,r16,2
	IOWR_16DIRECT(LCD_CTRL_BASE,LCD_COMMAND_REG,command);
	usleep(10);
}

void LCD_Write_Data(int data) {
	IOWR_16DIRECT(LCD_CTRL_BASE,LCD_DATA_REG,data);
    15b8:	8540000b 	ldhu	r21,0(r16)
    15bc:	9540002d 	sthio	r21,0(r18)
	usleep(10);
    15c0:	01000284 	movi	r4,10
    15c4:	000f0440 	call	f044 <usleep>
		                  int height) {
	unsigned short *data_array = (unsigned short *)array;
	unsigned int pixels;
	IOWR_32DIRECT(LCD_CTRL_BASE,LCD_Pict_width_reg,width);
	LCD_Write_Command(0x002C); 	//command to begin writing to frame memory
	for (pixels = 0 ; pixels < width*height ; pixels++)
    15c8:	8c400044 	addi	r17,r17,1
    15cc:	84000084 	addi	r16,r16,2
	IOWR_16DIRECT(LCD_CTRL_BASE,LCD_COMMAND_REG,command);
	usleep(10);
}

void LCD_Write_Data(int data) {
	IOWR_16DIRECT(LCD_CTRL_BASE,LCD_DATA_REG,data);
    15d0:	8080000b 	ldhu	r2,0(r16)
    15d4:	9080002d 	sthio	r2,0(r18)
	usleep(10);
    15d8:	01000284 	movi	r4,10
		                  int height) {
	unsigned short *data_array = (unsigned short *)array;
	unsigned int pixels;
	IOWR_32DIRECT(LCD_CTRL_BASE,LCD_Pict_width_reg,width);
	LCD_Write_Command(0x002C); 	//command to begin writing to frame memory
	for (pixels = 0 ; pixels < width*height ; pixels++)
    15dc:	8c400044 	addi	r17,r17,1
	usleep(10);
}

void LCD_Write_Data(int data) {
	IOWR_16DIRECT(LCD_CTRL_BASE,LCD_DATA_REG,data);
	usleep(10);
    15e0:	000f0440 	call	f044 <usleep>
    15e4:	84000084 	addi	r16,r16,2
		                  int height) {
	unsigned short *data_array = (unsigned short *)array;
	unsigned int pixels;
	IOWR_32DIRECT(LCD_CTRL_BASE,LCD_Pict_width_reg,width);
	LCD_Write_Command(0x002C); 	//command to begin writing to frame memory
	for (pixels = 0 ; pixels < width*height ; pixels++)
    15e8:	8cc02326 	beq	r17,r19,1678 <transfer_LCD_no_dma+0x1e8>
	IOWR_16DIRECT(LCD_CTRL_BASE,LCD_COMMAND_REG,command);
	usleep(10);
}

void LCD_Write_Data(int data) {
	IOWR_16DIRECT(LCD_CTRL_BASE,LCD_DATA_REG,data);
    15ec:	80c0000b 	ldhu	r3,0(r16)
    15f0:	90c0002d 	sthio	r3,0(r18)
	usleep(10);
    15f4:	01000284 	movi	r4,10
    15f8:	000f0440 	call	f044 <usleep>
	IOWR_16DIRECT(LCD_CTRL_BASE,LCD_COMMAND_REG,command);
	usleep(10);
}

void LCD_Write_Data(int data) {
	IOWR_16DIRECT(LCD_CTRL_BASE,LCD_DATA_REG,data);
    15fc:	8100008b 	ldhu	r4,2(r16)
    1600:	9100002d 	sthio	r4,0(r18)
	usleep(10);
    1604:	01000284 	movi	r4,10
    1608:	000f0440 	call	f044 <usleep>
	IOWR_16DIRECT(LCD_CTRL_BASE,LCD_COMMAND_REG,command);
	usleep(10);
}

void LCD_Write_Data(int data) {
	IOWR_16DIRECT(LCD_CTRL_BASE,LCD_DATA_REG,data);
    160c:	81c0010b 	ldhu	r7,4(r16)
    1610:	91c0002d 	sthio	r7,0(r18)
	usleep(10);
    1614:	01000284 	movi	r4,10
    1618:	000f0440 	call	f044 <usleep>
	IOWR_16DIRECT(LCD_CTRL_BASE,LCD_COMMAND_REG,command);
	usleep(10);
}

void LCD_Write_Data(int data) {
	IOWR_16DIRECT(LCD_CTRL_BASE,LCD_DATA_REG,data);
    161c:	8200018b 	ldhu	r8,6(r16)
    1620:	9200002d 	sthio	r8,0(r18)
	usleep(10);
    1624:	01000284 	movi	r4,10
    1628:	000f0440 	call	f044 <usleep>
	IOWR_16DIRECT(LCD_CTRL_BASE,LCD_COMMAND_REG,command);
	usleep(10);
}

void LCD_Write_Data(int data) {
	IOWR_16DIRECT(LCD_CTRL_BASE,LCD_DATA_REG,data);
    162c:	8140020b 	ldhu	r5,8(r16)
    1630:	9140002d 	sthio	r5,0(r18)
	usleep(10);
    1634:	01000284 	movi	r4,10
    1638:	000f0440 	call	f044 <usleep>
	IOWR_16DIRECT(LCD_CTRL_BASE,LCD_COMMAND_REG,command);
	usleep(10);
}

void LCD_Write_Data(int data) {
	IOWR_16DIRECT(LCD_CTRL_BASE,LCD_DATA_REG,data);
    163c:	8500028b 	ldhu	r20,10(r16)
    1640:	9500002d 	sthio	r20,0(r18)
	usleep(10);
    1644:	01000284 	movi	r4,10
    1648:	000f0440 	call	f044 <usleep>
	IOWR_16DIRECT(LCD_CTRL_BASE,LCD_COMMAND_REG,command);
	usleep(10);
}

void LCD_Write_Data(int data) {
	IOWR_16DIRECT(LCD_CTRL_BASE,LCD_DATA_REG,data);
    164c:	8580030b 	ldhu	r22,12(r16)
    1650:	9580002d 	sthio	r22,0(r18)
	usleep(10);
    1654:	01000284 	movi	r4,10
    1658:	000f0440 	call	f044 <usleep>
	IOWR_16DIRECT(LCD_CTRL_BASE,LCD_COMMAND_REG,command);
	usleep(10);
}

void LCD_Write_Data(int data) {
	IOWR_16DIRECT(LCD_CTRL_BASE,LCD_DATA_REG,data);
    165c:	8180038b 	ldhu	r6,14(r16)
    1660:	9180002d 	sthio	r6,0(r18)
	usleep(10);
    1664:	01000284 	movi	r4,10
		                  int height) {
	unsigned short *data_array = (unsigned short *)array;
	unsigned int pixels;
	IOWR_32DIRECT(LCD_CTRL_BASE,LCD_Pict_width_reg,width);
	LCD_Write_Command(0x002C); 	//command to begin writing to frame memory
	for (pixels = 0 ; pixels < width*height ; pixels++)
    1668:	8c400204 	addi	r17,r17,8
	usleep(10);
}

void LCD_Write_Data(int data) {
	IOWR_16DIRECT(LCD_CTRL_BASE,LCD_DATA_REG,data);
	usleep(10);
    166c:	000f0440 	call	f044 <usleep>
    1670:	84000404 	addi	r16,r16,16
		                  int height) {
	unsigned short *data_array = (unsigned short *)array;
	unsigned int pixels;
	IOWR_32DIRECT(LCD_CTRL_BASE,LCD_Pict_width_reg,width);
	LCD_Write_Command(0x002C); 	//command to begin writing to frame memory
	for (pixels = 0 ; pixels < width*height ; pixels++)
    1674:	8cffdd1e 	bne	r17,r19,15ec <__alt_data_end+0xff0015ec>
		LCD_Write_Data(data_array[pixels]);
}
    1678:	dfc00717 	ldw	ra,28(sp)
    167c:	dd800617 	ldw	r22,24(sp)
    1680:	dd400517 	ldw	r21,20(sp)
    1684:	dd000417 	ldw	r20,16(sp)
    1688:	dcc00317 	ldw	r19,12(sp)
    168c:	dc800217 	ldw	r18,8(sp)
    1690:	dc400117 	ldw	r17,4(sp)
    1694:	dc000017 	ldw	r16,0(sp)
    1698:	dec00804 	addi	sp,sp,32
    169c:	f800283a 	ret

000016a0 <transfer_LCD_with_dma>:

void transfer_LCD_with_dma(void *array,
		                   int width,
		                   int height,
		                   char grayscale) {
	unsigned short real_height = (height > LCD_height) ? LCD_height : height;
    16a0:	d0a7110b 	ldhu	r2,-25532(gp)
    16a4:	3080010e 	bge	r6,r2,16ac <transfer_LCD_with_dma+0xc>
    16a8:	3005883a 	mov	r2,r6
	unsigned short real_width = (width > LCD_width) ? LCD_width : width;
    16ac:	d0e7118b 	ldhu	r3,-25530(gp)
    16b0:	28c0010e 	bge	r5,r3,16b8 <transfer_LCD_with_dma+0x18>
    16b4:	2807883a 	mov	r3,r5
	IOWR_32DIRECT(LCD_CTRL_BASE,LCD_Pict_width_reg,width);
    16b8:	01804034 	movhi	r6,256
    16bc:	32041e04 	addi	r8,r6,4216
    16c0:	41400035 	stwio	r5,0(r8)
	IOWR_32DIRECT(LCD_CTRL_BASE,LCD_IMAGE_POINTER_REG,(int)array);
    16c4:	01404034 	movhi	r5,256
    16c8:	2a441b04 	addi	r9,r5,4204
    16cc:	49000035 	stwio	r4,0(r9)
	IOWR_32DIRECT(LCD_CTRL_BASE,LCD_IMAGE_SIZE_REG,real_width*real_height);
    16d0:	193fffcc 	andi	r4,r3,65535
    16d4:	12bfffcc 	andi	r10,r2,65535
    16d8:	2297383a 	mul	r11,r4,r10
    16dc:	03004034 	movhi	r12,256
    16e0:	63441c04 	addi	r13,r12,4208
    16e4:	6ac00035 	stwio	r11,0(r13)
	if (grayscale==0)
    16e8:	39c03fcc 	andi	r7,r7,255
    16ec:	3b80201c 	xori	r14,r7,128
		IOWR_16DIRECT(LCD_CTRL_BASE,LCD_CONTROL_REG,
    16f0:	00804034 	movhi	r2,256
	unsigned short real_height = (height > LCD_height) ? LCD_height : height;
	unsigned short real_width = (width > LCD_width) ? LCD_width : width;
	IOWR_32DIRECT(LCD_CTRL_BASE,LCD_Pict_width_reg,width);
	IOWR_32DIRECT(LCD_CTRL_BASE,LCD_IMAGE_POINTER_REG,(int)array);
	IOWR_32DIRECT(LCD_CTRL_BASE,LCD_IMAGE_SIZE_REG,real_width*real_height);
	if (grayscale==0)
    16f4:	73ffe004 	addi	r15,r14,-128
		IOWR_16DIRECT(LCD_CTRL_BASE,LCD_CONTROL_REG,
    16f8:	11841a04 	addi	r6,r2,4200
	unsigned short real_height = (height > LCD_height) ? LCD_height : height;
	unsigned short real_width = (width > LCD_width) ? LCD_width : width;
	IOWR_32DIRECT(LCD_CTRL_BASE,LCD_Pict_width_reg,width);
	IOWR_32DIRECT(LCD_CTRL_BASE,LCD_IMAGE_POINTER_REG,(int)array);
	IOWR_32DIRECT(LCD_CTRL_BASE,LCD_IMAGE_SIZE_REG,real_width*real_height);
	if (grayscale==0)
    16fc:	78000326 	beq	r15,zero,170c <transfer_LCD_with_dma+0x6c>
		IOWR_16DIRECT(LCD_CTRL_BASE,LCD_CONTROL_REG,
				         LCD_Sixteen_Bit|LCD_Start_DMA|
				         LCD_RGB565_Mode|LCD_Color_Image);
	else
		IOWR_16DIRECT(LCD_CTRL_BASE,LCD_CONTROL_REG,
    1700:	00c04404 	movi	r3,272
    1704:	30c0002d 	sthio	r3,0(r6)
    1708:	f800283a 	ret
	unsigned short real_width = (width > LCD_width) ? LCD_width : width;
	IOWR_32DIRECT(LCD_CTRL_BASE,LCD_Pict_width_reg,width);
	IOWR_32DIRECT(LCD_CTRL_BASE,LCD_IMAGE_POINTER_REG,(int)array);
	IOWR_32DIRECT(LCD_CTRL_BASE,LCD_IMAGE_SIZE_REG,real_width*real_height);
	if (grayscale==0)
		IOWR_16DIRECT(LCD_CTRL_BASE,LCD_CONTROL_REG,
    170c:	02004004 	movi	r8,256
    1710:	3200002d 	sthio	r8,0(r6)
    1714:	f800283a 	ret

00001718 <main>:
alt_u32 end_all = 0;
alt_u32 start_global = 0;
alt_u32 end_global = 0;

int main()
{
    1718:	defff804 	addi	sp,sp,-32
    171c:	dfc00715 	stw	ra,28(sp)
    1720:	dd800615 	stw	r22,24(sp)
    1724:	dd400515 	stw	r21,20(sp)
    1728:	dd000415 	stw	r20,16(sp)
    172c:	dcc00315 	stw	r19,12(sp)
    1730:	dc800215 	stw	r18,8(sp)
    1734:	dc400115 	stw	r17,4(sp)
    1738:	dc000015 	stw	r16,0(sp)
  unsigned short *image;
  unsigned char *grayscale;
  unsigned char current_mode;
  unsigned char mode;

  init_LCD();
    173c:	00010880 	call	1088 <init_LCD>
  init_camera();
    1740:	00002900 	call	290 <init_camera>
  vga_set_swap(VGA_QuarterScreen|VGA_Grayscale);
    1744:	01000604 	movi	r4,24
    1748:	0001e640 	call	1e64 <vga_set_swap>
  printf("Hello from Nios II!\n");
    174c:	01000074 	movhi	r4,1
    1750:	21063b04 	addi	r4,r4,6380
    1754:	000337c0 	call	337c <puts>
  cam_get_profiling();
    1758:	00008d40 	call	8d4 <cam_get_profiling>
  buffer1 = (void *) malloc(cam_get_xsize()*cam_get_ysize());
    175c:	000088c0 	call	88c <cam_get_xsize>
    1760:	1021883a 	mov	r16,r2
    1764:	00008b00 	call	8b0 <cam_get_ysize>
    1768:	80ffffcc 	andi	r3,r16,65535
    176c:	10bfffcc 	andi	r2,r2,65535
    1770:	1889383a 	mul	r4,r3,r2
    1774:	05000074 	movhi	r20,1
    1778:	a5071b04 	addi	r20,r20,7276
    177c:	0002a1c0 	call	2a1c <malloc>
    1780:	102d883a 	mov	r22,r2
  buffer2 = (void *) malloc(cam_get_xsize()*cam_get_ysize());
    1784:	000088c0 	call	88c <cam_get_xsize>
    1788:	1023883a 	mov	r17,r2
    178c:	00008b00 	call	8b0 <cam_get_ysize>
    1790:	89bfffcc 	andi	r6,r17,65535
    1794:	117fffcc 	andi	r5,r2,65535
    1798:	3149383a 	mul	r4,r6,r5
			  start_global = alt_timestamp();
			  current_mode = DIPSW_get_value();
			  mode = current_mode&(DIPSW_SW1_MASK|DIPSW_SW3_MASK|DIPSW_SW2_MASK);
			  image = (unsigned short*)current_image_pointer();
		      switch (mode) {
		      case 0 : transfer_LCD_with_dma(&image[16520],
    179c:	04e04414 	movui	r19,33040
		      end_global = alt_timestamp();
			#ifdef LOAD_SOBEL_COMPLETE
		      printf("conv grayscale: %d\n",(int)(end_conv_grayscale-start_conv_grayscale));
		      printf("sobel: %d\n",(int)(end_sobel-start_sobel));
			#endif
		      printf("Total: %d Cycles and %d Cycles/Pixel\n",(int)(end_all-start_all), (int)(end_all-start_all)/pixels);
    17a0:	048003c4 	movi	r18,15
  init_camera();
  vga_set_swap(VGA_QuarterScreen|VGA_Grayscale);
  printf("Hello from Nios II!\n");
  cam_get_profiling();
  buffer1 = (void *) malloc(cam_get_xsize()*cam_get_ysize());
  buffer2 = (void *) malloc(cam_get_xsize()*cam_get_ysize());
    17a4:	0002a1c0 	call	2a1c <malloc>
    17a8:	102b883a 	mov	r21,r2
  buffer3 = (void *) malloc(cam_get_xsize()*cam_get_ysize());
    17ac:	000088c0 	call	88c <cam_get_xsize>
    17b0:	1021883a 	mov	r16,r2
    17b4:	00008b00 	call	8b0 <cam_get_ysize>
    17b8:	823fffcc 	andi	r8,r16,65535
    17bc:	11ffffcc 	andi	r7,r2,65535
    17c0:	41c9383a 	mul	r4,r8,r7
    17c4:	0002a1c0 	call	2a1c <malloc>
    17c8:	1023883a 	mov	r17,r2
  buffer4 = (void *) malloc(cam_get_xsize()*cam_get_ysize());
    17cc:	000088c0 	call	88c <cam_get_xsize>
    17d0:	1021883a 	mov	r16,r2
    17d4:	00008b00 	call	8b0 <cam_get_ysize>
    17d8:	82bfffcc 	andi	r10,r16,65535
    17dc:	127fffcc 	andi	r9,r2,65535
    17e0:	5249383a 	mul	r4,r10,r9
    17e4:	0002a1c0 	call	2a1c <malloc>
  cam_set_image_pointer(0,buffer1);
    17e8:	b00b883a 	mov	r5,r22
    17ec:	0009883a 	mov	r4,zero
  printf("Hello from Nios II!\n");
  cam_get_profiling();
  buffer1 = (void *) malloc(cam_get_xsize()*cam_get_ysize());
  buffer2 = (void *) malloc(cam_get_xsize()*cam_get_ysize());
  buffer3 = (void *) malloc(cam_get_xsize()*cam_get_ysize());
  buffer4 = (void *) malloc(cam_get_xsize()*cam_get_ysize());
    17f0:	1021883a 	mov	r16,r2
  cam_set_image_pointer(0,buffer1);
    17f4:	000094c0 	call	94c <cam_set_image_pointer>
  cam_set_image_pointer(1,buffer2);
    17f8:	a80b883a 	mov	r5,r21
    17fc:	01000044 	movi	r4,1
    1800:	000094c0 	call	94c <cam_set_image_pointer>
  cam_set_image_pointer(2,buffer3);
    1804:	880b883a 	mov	r5,r17
    1808:	01000084 	movi	r4,2
    180c:	000094c0 	call	94c <cam_set_image_pointer>
  cam_set_image_pointer(3,buffer4);
    1810:	800b883a 	mov	r5,r16
    1814:	010000c4 	movi	r4,3
    1818:	000094c0 	call	94c <cam_set_image_pointer>
  enable_continues_mode();
    181c:	0000a040 	call	a04 <enable_continues_mode>


  int pixels = (cam_get_xsize()>>1) * cam_get_ysize();
    1820:	000088c0 	call	88c <cam_get_xsize>
    1824:	102d883a 	mov	r22,r2
    1828:	00008b00 	call	8b0 <cam_get_ysize>
    182c:	b2ffffcc 	andi	r11,r22,65535
    1830:	5818d07a 	srli	r12,r11,1
    1834:	137fffcc 	andi	r13,r2,65535
    1838:	6363383a 	mul	r17,r12,r13

	#ifdef LOAD_SOBEL
	  init_sobel_arrays(cam_get_xsize()>>1,cam_get_ysize());
    183c:	000088c0 	call	88c <cam_get_xsize>
    1840:	102b883a 	mov	r21,r2
    1844:	00008b00 	call	8b0 <cam_get_ysize>
    1848:	abbfffcc 	andi	r14,r21,65535
    184c:	7008d07a 	srli	r4,r14,1
    1850:	117fffcc 	andi	r5,r2,65535
    1854:	0001a800 	call	1a80 <init_sobel_arrays>
	#endif
	#ifdef LOAD_GRAYSCALE
	  conv_grayscale_init(cam_get_xsize()>>1, cam_get_ysize());
    1858:	000088c0 	call	88c <cam_get_xsize>
    185c:	1021883a 	mov	r16,r2
    1860:	00008b00 	call	8b0 <cam_get_ysize>
    1864:	83ffffcc 	andi	r15,r16,65535
    1868:	7808d07a 	srli	r4,r15,1
    186c:	117fffcc 	andi	r5,r2,65535
    1870:	0000c540 	call	c54 <conv_grayscale_init>
	#ifdef LOAD_SOBEL_ALL
	  sobel_all_init(cam_get_xsize()>>1, cam_get_ysize());
	#endif

  do {
	  if (new_image_available() != 0) {
    1874:	0000a180 	call	a18 <new_image_available>
    1878:	11003fcc 	andi	r4,r2,255
    187c:	2080201c 	xori	r2,r4,128
    1880:	10ffe004 	addi	r3,r2,-128
    1884:	183ffb26 	beq	r3,zero,1874 <__alt_data_end+0xff001874>
		  if (current_image_valid()!=0) {
    1888:	00009c00 	call	9c0 <current_image_valid>
    188c:	117fffcc 	andi	r5,r2,65535
    1890:	29a0001c 	xori	r6,r5,32768
    1894:	31e00004 	addi	r7,r6,-32768
    1898:	383ff626 	beq	r7,zero,1874 <__alt_data_end+0xff001874>

			  alt_timestamp_start();
    189c:	000fdec0 	call	fdec <alt_timestamp_start>

			  start_global = alt_timestamp();
    18a0:	000fe640 	call	fe64 <alt_timestamp>
    18a4:	d0a71315 	stw	r2,-25524(gp)
			  current_mode = DIPSW_get_value();
    18a8:	0000a440 	call	a44 <DIPSW_get_value>
    18ac:	1021883a 	mov	r16,r2
			  mode = current_mode&(DIPSW_SW1_MASK|DIPSW_SW3_MASK|DIPSW_SW2_MASK);
			  image = (unsigned short*)current_image_pointer();
    18b0:	00009d40 	call	9d4 <current_image_pointer>
		      switch (mode) {
    18b4:	820001cc 	andi	r8,r16,7
			  alt_timestamp_start();

			  start_global = alt_timestamp();
			  current_mode = DIPSW_get_value();
			  mode = current_mode&(DIPSW_SW1_MASK|DIPSW_SW3_MASK|DIPSW_SW2_MASK);
			  image = (unsigned short*)current_image_pointer();
    18b8:	102b883a 	mov	r21,r2
		      switch (mode) {
    18bc:	4000421e 	bne	r8,zero,19c8 <main+0x2b0>
		      case 0 : transfer_LCD_with_dma(&image[16520],
		                	cam_get_xsize()>>1,
    18c0:	000088c0 	call	88c <cam_get_xsize>
    18c4:	102d883a 	mov	r22,r2
		                	cam_get_ysize(),0);
    18c8:	00008b00 	call	8b0 <cam_get_ysize>
			  start_global = alt_timestamp();
			  current_mode = DIPSW_get_value();
			  mode = current_mode&(DIPSW_SW1_MASK|DIPSW_SW3_MASK|DIPSW_SW2_MASK);
			  image = (unsigned short*)current_image_pointer();
		      switch (mode) {
		      case 0 : transfer_LCD_with_dma(&image[16520],
    18cc:	b37fffcc 	andi	r13,r22,65535
    18d0:	680ad07a 	srli	r5,r13,1
    18d4:	acc9883a 	add	r4,r21,r19
    18d8:	000f883a 	mov	r7,zero
    18dc:	11bfffcc 	andi	r6,r2,65535
    18e0:	00016a00 	call	16a0 <transfer_LCD_with_dma>
		                	cam_get_xsize()>>1,
		                	cam_get_ysize(),0);
		      	  	   if ((current_mode&DIPSW_SW8_MASK)!=0) {
    18e4:	83803fcc 	andi	r14,r16,255
    18e8:	73c0201c 	xori	r15,r14,128
    18ec:	793fe004 	addi	r4,r15,-128
    18f0:	20005c16 	blt	r4,zero,1a64 <main+0x34c>
		      	  		  vga_set_swap(VGA_QuarterScreen|VGA_Grayscale);
		      	  		  vga_set_pointer(grayscale);
		      	  	   }
		      	  	   break;
		      }
		      end_global = alt_timestamp();
    18f4:	000fe640 	call	fe64 <alt_timestamp>
    18f8:	d0a71215 	stw	r2,-25528(gp)
			#ifdef LOAD_SOBEL_COMPLETE
		      printf("conv grayscale: %d\n",(int)(end_conv_grayscale-start_conv_grayscale));
    18fc:	d1671617 	ldw	r5,-25512(gp)
    1900:	d0a71717 	ldw	r2,-25508(gp)
    1904:	00c00074 	movhi	r3,1
    1908:	19064004 	addi	r4,r3,6400
    190c:	288bc83a 	sub	r5,r5,r2
    1910:	00032800 	call	3280 <printf>
		      printf("sobel: %d\n",(int)(end_sobel-start_sobel));
    1914:	d1e71917 	ldw	r7,-25500(gp)
    1918:	d4271817 	ldw	r16,-25504(gp)
    191c:	01800074 	movhi	r6,1
    1920:	31064504 	addi	r4,r6,6420
    1924:	81cbc83a 	sub	r5,r16,r7
    1928:	00032800 	call	3280 <printf>
			#endif
		      printf("Total: %d Cycles and %d Cycles/Pixel\n",(int)(end_all-start_all), (int)(end_all-start_all)/pixels);
    192c:	d2271517 	ldw	r8,-25516(gp)
    1930:	d5671417 	ldw	r21,-25520(gp)
    1934:	aa2dc83a 	sub	r22,r21,r8
    1938:	b452b03a 	or	r9,r22,r17
    193c:	92401d36 	bltu	r18,r9,19b4 <main+0x29c>
    1940:	b03e913a 	slli	ra,r22,4
    1944:	fc54b03a 	or	r10,ra,r17
    1948:	5517883a 	add	r11,r10,r20
    194c:	59800003 	ldbu	r6,0(r11)
    1950:	03000074 	movhi	r12,1
    1954:	61064804 	addi	r4,r12,6432
    1958:	b00b883a 	mov	r5,r22
    195c:	00032800 	call	3280 <printf>
		      printf("FPS: %lfImg/s\n", 1.0L / ((double)(end_global- start_global) / ALT_CPU_FREQ));
    1960:	d3671317 	ldw	r13,-25524(gp)
    1964:	d3a71217 	ldw	r14,-25528(gp)
    1968:	7349c83a 	sub	r4,r14,r13
    196c:	00029100 	call	2910 <__floatunsidf>
    1970:	03d06234 	movhi	r15,16776
    1974:	79f5e104 	addi	r7,r15,-10364
    1978:	1009883a 	mov	r4,r2
    197c:	180b883a 	mov	r5,r3
    1980:	000d883a 	mov	r6,zero
    1984:	00020280 	call	2028 <__divdf3>
    1988:	100d883a 	mov	r6,r2
    198c:	180f883a 	mov	r7,r3
    1990:	0009883a 	mov	r4,zero
    1994:	014ffc34 	movhi	r5,16368
    1998:	00020280 	call	2028 <__divdf3>
    199c:	01000074 	movhi	r4,1
    19a0:	100b883a 	mov	r5,r2
    19a4:	180d883a 	mov	r6,r3
    19a8:	21065204 	addi	r4,r4,6472
    19ac:	00032800 	call	3280 <printf>
    19b0:	003fb006 	br	1874 <__alt_data_end+0xff001874>
		      end_global = alt_timestamp();
			#ifdef LOAD_SOBEL_COMPLETE
		      printf("conv grayscale: %d\n",(int)(end_conv_grayscale-start_conv_grayscale));
		      printf("sobel: %d\n",(int)(end_sobel-start_sobel));
			#endif
		      printf("Total: %d Cycles and %d Cycles/Pixel\n",(int)(end_all-start_all), (int)(end_all-start_all)/pixels);
    19b4:	880b883a 	mov	r5,r17
    19b8:	b009883a 	mov	r4,r22
    19bc:	0001e740 	call	1e74 <__divsi3>
    19c0:	100d883a 	mov	r6,r2
    19c4:	003fe206 	br	1950 <__alt_data_end+0xff001950>
		      	  		  vga_set_swap(VGA_QuarterScreen);
		      	  		  vga_set_pointer(image);
		      	  	   }
		      	  	   break;
		      default:
		    	  	   start_all = alt_timestamp();
    19c8:	000fe640 	call	fe64 <alt_timestamp>
    19cc:	d0a71515 	stw	r2,-25516(gp)

						#if defined(LOAD_SOBEL) && defined(LOAD_GRAYSCALE)
						#if defined(LOAD_SOBEL_COMPLETE)
		    	  	   start_conv_grayscale = alt_timestamp();
    19d0:	000fe640 	call	fe64 <alt_timestamp>
		    	  	   conv_grayscale((void *)image);
    19d4:	a809883a 	mov	r4,r21
		      default:
		    	  	   start_all = alt_timestamp();

						#if defined(LOAD_SOBEL) && defined(LOAD_GRAYSCALE)
						#if defined(LOAD_SOBEL_COMPLETE)
		    	  	   start_conv_grayscale = alt_timestamp();
    19d8:	d0a71715 	stw	r2,-25508(gp)
		    	  	   conv_grayscale((void *)image);
    19dc:	0000a580 	call	a58 <conv_grayscale>
		    	  	   end_conv_grayscale = alt_timestamp();
    19e0:	000fe640 	call	fe64 <alt_timestamp>
    19e4:	d0a71615 	stw	r2,-25512(gp)

                       grayscale = get_grayscale_picture();
    19e8:	0000ce40 	call	ce4 <get_grayscale_picture>
    19ec:	102d883a 	mov	r22,r2

                       start_sobel = alt_timestamp();
    19f0:	000fe640 	call	fe64 <alt_timestamp>
                       sobel_complete(grayscale, 128);
    19f4:	b009883a 	mov	r4,r22
    19f8:	01402004 	movi	r5,128
		    	  	   conv_grayscale((void *)image);
		    	  	   end_conv_grayscale = alt_timestamp();

                       grayscale = get_grayscale_picture();

                       start_sobel = alt_timestamp();
    19fc:	d0a71915 	stw	r2,-25500(gp)
                       sobel_complete(grayscale, 128);
    1a00:	0001c0c0 	call	1c0c <sobel_complete>
                       end_sobel = alt_timestamp();
    1a04:	000fe640 	call	fe64 <alt_timestamp>
    1a08:	d0a71815 	stw	r2,-25504(gp)

						#ifdef LOAD_SOBEL_ALL_FUSION
							sobel_all_complete_fusion((void *)image);
						#endif

                       end_all = alt_timestamp();
    1a0c:	000fe640 	call	fe64 <alt_timestamp>
    1a10:	d0a71415 	stw	r2,-25520(gp)

						#ifdef LOAD_GRAYSCALE
                       	   grayscale=GetSobelResult();
    1a14:	0001a780 	call	1a78 <GetSobelResult>
    1a18:	102d883a 	mov	r22,r2
						#ifdef LOAD_SOBEL_ALL
                       	   grayscale=GetSobelAllResult();
						#endif

		               transfer_LCD_with_dma(&grayscale[16520],
		      		                	cam_get_xsize()>>1,
    1a1c:	000088c0 	call	88c <cam_get_xsize>
    1a20:	102b883a 	mov	r21,r2
		      		                	cam_get_ysize(),1);
    1a24:	00008b00 	call	8b0 <cam_get_ysize>

						#ifdef LOAD_SOBEL_ALL
                       	   grayscale=GetSobelAllResult();
						#endif

		               transfer_LCD_with_dma(&grayscale[16520],
    1a28:	aa7fffcc 	andi	r9,r21,65535
    1a2c:	480ad07a 	srli	r5,r9,1
    1a30:	01c00044 	movi	r7,1
    1a34:	11bfffcc 	andi	r6,r2,65535
    1a38:	b1102204 	addi	r4,r22,16520
    1a3c:	00016a00 	call	16a0 <transfer_LCD_with_dma>
		      		                	cam_get_xsize()>>1,
		      		                	cam_get_ysize(),1);
		      	  	   if ((current_mode&DIPSW_SW8_MASK)!=0) {
    1a40:	82803fcc 	andi	r10,r16,255
    1a44:	52c0201c 	xori	r11,r10,128
    1a48:	5b3fe004 	addi	r12,r11,-128
    1a4c:	603fa90e 	bge	r12,zero,18f4 <__alt_data_end+0xff0018f4>
		      	  		  vga_set_swap(VGA_QuarterScreen|VGA_Grayscale);
    1a50:	01000604 	movi	r4,24
    1a54:	0001e640 	call	1e64 <vga_set_swap>
		      	  		  vga_set_pointer(grayscale);
    1a58:	b009883a 	mov	r4,r22
    1a5c:	0001e540 	call	1e54 <vga_set_pointer>
    1a60:	003fa406 	br	18f4 <__alt_data_end+0xff0018f4>
		      switch (mode) {
		      case 0 : transfer_LCD_with_dma(&image[16520],
		                	cam_get_xsize()>>1,
		                	cam_get_ysize(),0);
		      	  	   if ((current_mode&DIPSW_SW8_MASK)!=0) {
		      	  		  vga_set_swap(VGA_QuarterScreen);
    1a64:	01000204 	movi	r4,8
    1a68:	0001e640 	call	1e64 <vga_set_swap>
		      	  		  vga_set_pointer(image);
    1a6c:	a809883a 	mov	r4,r21
    1a70:	0001e540 	call	1e54 <vga_set_pointer>
    1a74:	003f9f06 	br	18f4 <__alt_data_end+0xff0018f4>

00001a78 <GetSobelResult>:
int sobel_width;
int sobel_height;

unsigned char *GetSobelResult() {
	return sobel_result;
}
    1a78:	d0a71b17 	ldw	r2,-25492(gp)
    1a7c:	f800283a 	ret

00001a80 <init_sobel_arrays>:
		sobel_result[loop] = 0;
		sobel_rgb565[loop] = 0;
	}
}
#else
void init_sobel_arrays(int width , int height) {
    1a80:	defffe04 	addi	sp,sp,-8
    1a84:	dc000015 	stw	r16,0(sp)
	int loop;
	sobel_width = width;
	sobel_height = height;
	printf("Sobel size: %d x %d = %d pixel\n", width, height, width*height);
    1a88:	2161383a 	mul	r16,r4,r5
		sobel_result[loop] = 0;
		sobel_rgb565[loop] = 0;
	}
}
#else
void init_sobel_arrays(int width , int height) {
    1a8c:	2007883a 	mov	r3,r4
	int loop;
	sobel_width = width;
	sobel_height = height;
	printf("Sobel size: %d x %d = %d pixel\n", width, height, width*height);
    1a90:	01000074 	movhi	r4,1
		sobel_result[loop] = 0;
		sobel_rgb565[loop] = 0;
	}
}
#else
void init_sobel_arrays(int width , int height) {
    1a94:	2805883a 	mov	r2,r5
	int loop;
	sobel_width = width;
	sobel_height = height;
	printf("Sobel size: %d x %d = %d pixel\n", width, height, width*height);
    1a98:	21065604 	addi	r4,r4,6488
    1a9c:	280d883a 	mov	r6,r5
    1aa0:	800f883a 	mov	r7,r16
    1aa4:	180b883a 	mov	r5,r3
		sobel_result[loop] = 0;
		sobel_rgb565[loop] = 0;
	}
}
#else
void init_sobel_arrays(int width , int height) {
    1aa8:	dfc00115 	stw	ra,4(sp)
	int loop;
	sobel_width = width;
    1aac:	d0e71a15 	stw	r3,-25496(gp)
	sobel_height = height;
    1ab0:	d0a71c15 	stw	r2,-25488(gp)
	printf("Sobel size: %d x %d = %d pixel\n", width, height, width*height);
    1ab4:	00032800 	call	3280 <printf>
	if (sobel_result != NULL)
    1ab8:	d1271b17 	ldw	r4,-25492(gp)
    1abc:	20000126 	beq	r4,zero,1ac4 <init_sobel_arrays+0x44>
		free(sobel_result);
    1ac0:	0002a300 	call	2a30 <free>
	sobel_result = (unsigned char *)alt_uncached_malloc(width*height*sizeof(unsigned char));
    1ac4:	8009883a 	mov	r4,r16
    1ac8:	000efcc0 	call	efcc <alt_uncached_malloc>
    1acc:	d0a71b15 	stw	r2,-25492(gp)
	for (loop = 0 ; loop < width*height ; loop++) {
    1ad0:	04004a0e 	bge	zero,r16,1bfc <init_sobel_arrays+0x17c>
    1ad4:	040bc83a 	sub	r5,zero,r16
    1ad8:	014c303a 	nor	r6,zero,r5
    1adc:	31c001cc 	andi	r7,r6,7
    1ae0:	0007883a 	mov	r3,zero
    1ae4:	38004126 	beq	r7,zero,1bec <init_sobel_arrays+0x16c>
		sobel_result[loop] = 0;
    1ae8:	10000005 	stb	zero,0(r2)
	sobel_height = height;
	printf("Sobel size: %d x %d = %d pixel\n", width, height, width*height);
	if (sobel_result != NULL)
		free(sobel_result);
	sobel_result = (unsigned char *)alt_uncached_malloc(width*height*sizeof(unsigned char));
	for (loop = 0 ; loop < width*height ; loop++) {
    1aec:	00c00044 	movi	r3,1
    1af0:	d0a71b17 	ldw	r2,-25492(gp)
    1af4:	38c03d26 	beq	r7,r3,1bec <init_sobel_arrays+0x16c>
    1af8:	02000084 	movi	r8,2
    1afc:	3a001c26 	beq	r7,r8,1b70 <init_sobel_arrays+0xf0>
    1b00:	024000c4 	movi	r9,3
    1b04:	3a401626 	beq	r7,r9,1b60 <init_sobel_arrays+0xe0>
    1b08:	02800104 	movi	r10,4
    1b0c:	3a801026 	beq	r7,r10,1b50 <init_sobel_arrays+0xd0>
    1b10:	02c00144 	movi	r11,5
    1b14:	3ac00a26 	beq	r7,r11,1b40 <init_sobel_arrays+0xc0>
    1b18:	03000184 	movi	r12,6
    1b1c:	3b000426 	beq	r7,r12,1b30 <init_sobel_arrays+0xb0>
		sobel_result[loop] = 0;
    1b20:	10db883a 	add	r13,r2,r3
    1b24:	68000005 	stb	zero,0(r13)
    1b28:	d0a71b17 	ldw	r2,-25492(gp)
	sobel_height = height;
	printf("Sobel size: %d x %d = %d pixel\n", width, height, width*height);
	if (sobel_result != NULL)
		free(sobel_result);
	sobel_result = (unsigned char *)alt_uncached_malloc(width*height*sizeof(unsigned char));
	for (loop = 0 ; loop < width*height ; loop++) {
    1b2c:	4007883a 	mov	r3,r8
		sobel_result[loop] = 0;
    1b30:	10dd883a 	add	r14,r2,r3
    1b34:	70000005 	stb	zero,0(r14)
    1b38:	d0a71b17 	ldw	r2,-25492(gp)
	sobel_height = height;
	printf("Sobel size: %d x %d = %d pixel\n", width, height, width*height);
	if (sobel_result != NULL)
		free(sobel_result);
	sobel_result = (unsigned char *)alt_uncached_malloc(width*height*sizeof(unsigned char));
	for (loop = 0 ; loop < width*height ; loop++) {
    1b3c:	18c00044 	addi	r3,r3,1
		sobel_result[loop] = 0;
    1b40:	10df883a 	add	r15,r2,r3
    1b44:	78000005 	stb	zero,0(r15)
    1b48:	d0a71b17 	ldw	r2,-25492(gp)
	sobel_height = height;
	printf("Sobel size: %d x %d = %d pixel\n", width, height, width*height);
	if (sobel_result != NULL)
		free(sobel_result);
	sobel_result = (unsigned char *)alt_uncached_malloc(width*height*sizeof(unsigned char));
	for (loop = 0 ; loop < width*height ; loop++) {
    1b4c:	18c00044 	addi	r3,r3,1
		sobel_result[loop] = 0;
    1b50:	10ff883a 	add	ra,r2,r3
    1b54:	f8000005 	stb	zero,0(ra)
    1b58:	d0a71b17 	ldw	r2,-25492(gp)
	sobel_height = height;
	printf("Sobel size: %d x %d = %d pixel\n", width, height, width*height);
	if (sobel_result != NULL)
		free(sobel_result);
	sobel_result = (unsigned char *)alt_uncached_malloc(width*height*sizeof(unsigned char));
	for (loop = 0 ; loop < width*height ; loop++) {
    1b5c:	18c00044 	addi	r3,r3,1
		sobel_result[loop] = 0;
    1b60:	10c5883a 	add	r2,r2,r3
    1b64:	10000005 	stb	zero,0(r2)
    1b68:	d0a71b17 	ldw	r2,-25492(gp)
	sobel_height = height;
	printf("Sobel size: %d x %d = %d pixel\n", width, height, width*height);
	if (sobel_result != NULL)
		free(sobel_result);
	sobel_result = (unsigned char *)alt_uncached_malloc(width*height*sizeof(unsigned char));
	for (loop = 0 ; loop < width*height ; loop++) {
    1b6c:	18c00044 	addi	r3,r3,1
		sobel_result[loop] = 0;
    1b70:	10c9883a 	add	r4,r2,r3
    1b74:	20000005 	stb	zero,0(r4)
    1b78:	d0a71b17 	ldw	r2,-25492(gp)
	sobel_height = height;
	printf("Sobel size: %d x %d = %d pixel\n", width, height, width*height);
	if (sobel_result != NULL)
		free(sobel_result);
	sobel_result = (unsigned char *)alt_uncached_malloc(width*height*sizeof(unsigned char));
	for (loop = 0 ; loop < width*height ; loop++) {
    1b7c:	18c00044 	addi	r3,r3,1
    1b80:	19800044 	addi	r6,r3,1
		sobel_result[loop] = 0;
    1b84:	10cb883a 	add	r5,r2,r3
    1b88:	28000005 	stb	zero,0(r5)
	sobel_height = height;
	printf("Sobel size: %d x %d = %d pixel\n", width, height, width*height);
	if (sobel_result != NULL)
		free(sobel_result);
	sobel_result = (unsigned char *)alt_uncached_malloc(width*height*sizeof(unsigned char));
	for (loop = 0 ; loop < width*height ; loop++) {
    1b8c:	81801b26 	beq	r16,r6,1bfc <init_sobel_arrays+0x17c>
    1b90:	d1e71b17 	ldw	r7,-25492(gp)
		sobel_result[loop] = 0;
    1b94:	3991883a 	add	r8,r7,r6
    1b98:	40000005 	stb	zero,0(r8)
    1b9c:	d2671b17 	ldw	r9,-25492(gp)
    1ba0:	48d5883a 	add	r10,r9,r3
    1ba4:	50000085 	stb	zero,2(r10)
    1ba8:	d2e71b17 	ldw	r11,-25492(gp)
    1bac:	58d9883a 	add	r12,r11,r3
    1bb0:	600000c5 	stb	zero,3(r12)
    1bb4:	d3671b17 	ldw	r13,-25492(gp)
    1bb8:	68dd883a 	add	r14,r13,r3
    1bbc:	70000105 	stb	zero,4(r14)
    1bc0:	d3e71b17 	ldw	r15,-25492(gp)
    1bc4:	78ff883a 	add	ra,r15,r3
    1bc8:	f8000145 	stb	zero,5(ra)
    1bcc:	d0a71b17 	ldw	r2,-25492(gp)
    1bd0:	10c9883a 	add	r4,r2,r3
    1bd4:	20000185 	stb	zero,6(r4)
    1bd8:	d1671b17 	ldw	r5,-25492(gp)
    1bdc:	28cd883a 	add	r6,r5,r3
    1be0:	300001c5 	stb	zero,7(r6)
    1be4:	d0a71b17 	ldw	r2,-25492(gp)
	sobel_height = height;
	printf("Sobel size: %d x %d = %d pixel\n", width, height, width*height);
	if (sobel_result != NULL)
		free(sobel_result);
	sobel_result = (unsigned char *)alt_uncached_malloc(width*height*sizeof(unsigned char));
	for (loop = 0 ; loop < width*height ; loop++) {
    1be8:	18c00204 	addi	r3,r3,8
		sobel_result[loop] = 0;
    1bec:	10cb883a 	add	r5,r2,r3
    1bf0:	28000005 	stb	zero,0(r5)
	sobel_height = height;
	printf("Sobel size: %d x %d = %d pixel\n", width, height, width*height);
	if (sobel_result != NULL)
		free(sobel_result);
	sobel_result = (unsigned char *)alt_uncached_malloc(width*height*sizeof(unsigned char));
	for (loop = 0 ; loop < width*height ; loop++) {
    1bf4:	19800044 	addi	r6,r3,1
    1bf8:	81bfe51e 	bne	r16,r6,1b90 <__alt_data_end+0xff001b90>
		sobel_result[loop] = 0;
	}
}
    1bfc:	dfc00117 	ldw	ra,4(sp)
    1c00:	dc000017 	ldw	r16,0(sp)
    1c04:	dec00204 	addi	sp,sp,8
    1c08:	f800283a 	ret

00001c0c <sobel_complete>:
		}
}
#endif

#if defined(LOAD_SOBEL_COMPLETE) && defined(LOAD_SOBEL_COMPLETE_ONE_LOOP)
void sobel_complete(unsigned char *source, short threshold){
    1c0c:	defff604 	addi	sp,sp,-40
    1c10:	dc000015 	stw	r16,0(sp)
    1c14:	d3271c17 	ldw	r12,-25488(gp)
		int x,y;
		int y1, y2, y0, yc;
		int p1, p2, p3, p4, p5, p6, p7, p8, p9;
		int width_len = sobel_width-1;
    1c18:	d4271a17 	ldw	r16,-25496(gp)
    1c1c:	297fffcc 	andi	r5,r5,65535
    1c20:	28a0001c 	xori	r2,r5,32768
		}
}
#endif

#if defined(LOAD_SOBEL_COMPLETE) && defined(LOAD_SOBEL_COMPLETE_ONE_LOOP)
void sobel_complete(unsigned char *source, short threshold){
    1c24:	dfc00915 	stw	ra,36(sp)
    1c28:	dc800215 	stw	r18,8(sp)
    1c2c:	dc400115 	stw	r17,4(sp)
    1c30:	df000815 	stw	fp,32(sp)
    1c34:	ddc00715 	stw	r23,28(sp)
    1c38:	dd800615 	stw	r22,24(sp)
    1c3c:	dd400515 	stw	r21,20(sp)
    1c40:	dd000415 	stw	r20,16(sp)
    1c44:	dcc00315 	stw	r19,12(sp)
		int x,y;
		int y1, y2, y0, yc;
		int p1, p2, p3, p4, p5, p6, p7, p8, p9;
		int width_len = sobel_width-1;
		for (y = 1 ; y < (sobel_height-1) ; y++) {
    1c48:	07c00044 	movi	ra,1
    1c4c:	633fffc4 	addi	r12,r12,-1

				p3 = *(source+y0);
				p6 = *(source+y1);
				p9 = *(source+y2);

				for (x = 1 ; x < width_len ; x++) {
    1c50:	04400084 	movi	r17,2
    1c54:	11600004 	addi	r5,r2,-32768
    1c58:	84bfffc4 	addi	r18,r16,-1
void sobel_complete(unsigned char *source, short threshold){
		int x,y;
		int y1, y2, y0, yc;
		int p1, p2, p3, p4, p5, p6, p7, p8, p9;
		int width_len = sobel_width-1;
		for (y = 1 ; y < (sobel_height-1) ; y++) {
    1c5c:	fb00710e 	bge	ra,r12,1e24 <sobel_complete+0x218>
				y0 = (y-1)*sobel_width+1;
    1c60:	d2271a17 	ldw	r8,-25496(gp)
    1c64:	fa7fffc4 	addi	r9,ra,-1
			    y1 = y*sobel_width+1;
    1c68:	fa0d383a 	mul	r6,ra,r8
		int x,y;
		int y1, y2, y0, yc;
		int p1, p2, p3, p4, p5, p6, p7, p8, p9;
		int width_len = sobel_width-1;
		for (y = 1 ; y < (sobel_height-1) ; y++) {
				y0 = (y-1)*sobel_width+1;
    1c6c:	4a1d383a 	mul	r14,r9,r8
			    y1 = y*sobel_width+1;
			    y2 = (y+1)*sobel_width+1;
    1c70:	ffc00044 	addi	ra,ra,1
    1c74:	41ad883a 	add	r22,r8,r6

				p2 = *(source+y0-1);
    1c78:	72800044 	addi	r10,r14,1
				p5 = *(source+y1-1);
    1c7c:	32c00044 	addi	r11,r6,1
				p8 = *(source+y2-1);
    1c80:	b0c00044 	addi	r3,r22,1
		for (y = 1 ; y < (sobel_height-1) ; y++) {
				y0 = (y-1)*sobel_width+1;
			    y1 = y*sobel_width+1;
			    y2 = (y+1)*sobel_width+1;

				p2 = *(source+y0-1);
    1c84:	229f883a 	add	r15,r4,r10
				p5 = *(source+y1-1);
    1c88:	22db883a 	add	r13,r4,r11
				p8 = *(source+y2-1);
    1c8c:	20eb883a 	add	r21,r4,r3
    1c90:	a8bfffc3 	ldbu	r2,-1(r21)
		for (y = 1 ; y < (sobel_height-1) ; y++) {
				y0 = (y-1)*sobel_width+1;
			    y1 = y*sobel_width+1;
			    y2 = (y+1)*sobel_width+1;

				p2 = *(source+y0-1);
    1c94:	79ffffc3 	ldbu	r7,-1(r15)
				p5 = *(source+y1-1);
    1c98:	6dffffc3 	ldbu	r23,-1(r13)
				p8 = *(source+y2-1);

				p3 = *(source+y0);
    1c9c:	7cc00003 	ldbu	r19,0(r15)
				p6 = *(source+y1);
    1ca0:	6d000003 	ldbu	r20,0(r13)
				p9 = *(source+y2);
    1ca4:	ad400003 	ldbu	r21,0(r21)

				for (x = 1 ; x < width_len ; x++) {
    1ca8:	8c3fec0e 	bge	r17,r16,1c5c <__alt_data_end+0xff001c5c>
    1cac:	919f883a 	add	r15,r18,r6
    1cb0:	5bf9c83a 	sub	fp,r11,r15
    1cb4:	0718303a 	nor	r12,zero,fp
    1cb8:	72400084 	addi	r9,r14,2
    1cbc:	b2000084 	addi	r8,r22,2
    1cc0:	33800084 	addi	r14,r6,2
    1cc4:	6580004c 	andi	r22,r12,1
    1cc8:	2253883a 	add	r9,r4,r9
    1ccc:	2395883a 	add	r10,r4,r14
    1cd0:	2211883a 	add	r8,r4,r8
    1cd4:	b0003726 	beq	r22,zero,1db4 <sobel_complete+0x1a8>
					p2 = p3;
					p5 = p6;
					p8 = p9;

					yc = y1+x;
					p3 = *(source+y0+x);
    1cd8:	4b800003 	ldbu	r14,0(r9)
					p6 = *(source+yc);
					p9 = *(source+y2+x);
    1cdc:	43400003 	ldbu	r13,0(r8)
					p5 = p6;
					p8 = p9;

					yc = y1+x;
					p3 = *(source+y0+x);
					p6 = *(source+yc);
    1ce0:	53000003 	ldbu	r12,0(r10)
					p9 = *(source+y2+x);

					int a = p1 - p9;
					int b = p3 - p7;
    1ce4:	7085c83a 	sub	r2,r14,r2
					yc = y1+x;
					p3 = *(source+y0+x);
					p6 = *(source+yc);
					p9 = *(source+y2+x);

					int a = p1 - p9;
    1ce8:	3b4fc83a 	sub	r7,r7,r13
					int b = p3 - p7;
					IOWR_8DIRECT(sobel_result,yc-1,ALT_CI_THRESHOLD_0(
    1cec:	38ad883a 	add	r22,r7,r2
    1cf0:	11c5c83a 	sub	r2,r2,r7
    1cf4:	d1e71b17 	ldw	r7,-25492(gp)
    1cf8:	9d47c83a 	sub	r3,r19,r21
    1cfc:	65efc83a 	sub	r23,r12,r23
    1d00:	18f9883a 	add	fp,r3,r3
    1d04:	bdef883a 	add	r23,r23,r23
    1d08:	e587883a 	add	r3,fp,r22
    1d0c:	3ad7883a 	add	r11,r7,r11
    1d10:	b8b9883a 	add	fp,r23,r2
    1d14:	1f2dc132 	custom	4,r22,r3,fp
    1d18:	b16fc0b2 	custom	2,r23,r22,r5
    1d1c:	5dc00025 	stbio	r23,0(r11)
    1d20:	980f883a 	mov	r7,r19
    1d24:	a02f883a 	mov	r23,r20
    1d28:	a805883a 	mov	r2,r21
    1d2c:	4a400044 	addi	r9,r9,1
    1d30:	52800044 	addi	r10,r10,1
    1d34:	42000044 	addi	r8,r8,1
    1d38:	32c00084 	addi	r11,r6,2
					p2 = p3;
					p5 = p6;
					p8 = p9;

					yc = y1+x;
					p3 = *(source+y0+x);
    1d3c:	7027883a 	mov	r19,r14
					p6 = *(source+yc);
					p9 = *(source+y2+x);
    1d40:	682b883a 	mov	r21,r13
					p5 = p6;
					p8 = p9;

					yc = y1+x;
					p3 = *(source+y0+x);
					p6 = *(source+yc);
    1d44:	6029883a 	mov	r20,r12
    1d48:	00001a06 	br	1db4 <sobel_complete+0x1a8>
					p2 = p3;
					p5 = p6;
					p8 = p9;

					yc = y1+x;
					p3 = *(source+y0+x);
    1d4c:	b5c00003 	ldbu	r23,0(r22)
					p6 = *(source+yc);
					p9 = *(source+y2+x);
    1d50:	17000003 	ldbu	fp,0(r2)
					p5 = p6;
					p8 = p9;

					yc = y1+x;
					p3 = *(source+y0+x);
					p6 = *(source+yc);
    1d54:	35800003 	ldbu	r22,0(r6)
					p9 = *(source+y2+x);

					int a = p1 - p9;
					int b = p3 - p7;
    1d58:	bd6bc83a 	sub	r21,r23,r21
					yc = y1+x;
					p3 = *(source+y0+x);
					p6 = *(source+yc);
					p9 = *(source+y2+x);

					int a = p1 - p9;
    1d5c:	9f27c83a 	sub	r19,r19,fp
					int b = p3 - p7;
					IOWR_8DIRECT(sobel_result,yc-1,ALT_CI_THRESHOLD_0(
    1d60:	9d4d883a 	add	r6,r19,r21
    1d64:	acc5c83a 	sub	r2,r21,r19
    1d68:	d5671b17 	ldw	r21,-25492(gp)
    1d6c:	b529c83a 	sub	r20,r22,r20
    1d70:	a529883a 	add	r20,r20,r20
    1d74:	a9cf883a 	add	r7,r21,r7
    1d78:	1987883a 	add	r3,r3,r6
    1d7c:	a0a7883a 	add	r19,r20,r2
    1d80:	1ccdc132 	custom	4,r6,r3,r19
    1d84:	3169c0b2 	custom	2,r20,r6,r5
    1d88:	3d000025 	stbio	r20,0(r7)
					p2 = p3;
					p5 = p6;
					p8 = p9;

					yc = y1+x;
					p3 = *(source+y0+x);
    1d8c:	b827883a 	mov	r19,r23
    1d90:	4a400084 	addi	r9,r9,2
    1d94:	52800084 	addi	r10,r10,2
    1d98:	42000084 	addi	r8,r8,2
    1d9c:	5ac00084 	addi	r11,r11,2
    1da0:	680f883a 	mov	r7,r13
    1da4:	702f883a 	mov	r23,r14
    1da8:	6005883a 	mov	r2,r12
					p6 = *(source+yc);
					p9 = *(source+y2+x);
    1dac:	e02b883a 	mov	r21,fp
					p5 = p6;
					p8 = p9;

					yc = y1+x;
					p3 = *(source+y0+x);
					p6 = *(source+yc);
    1db0:	b029883a 	mov	r20,r22
					p2 = p3;
					p5 = p6;
					p8 = p9;

					yc = y1+x;
					p3 = *(source+y0+x);
    1db4:	4b400003 	ldbu	r13,0(r9)
					p6 = *(source+yc);
					p9 = *(source+y2+x);
    1db8:	43000003 	ldbu	r12,0(r8)
					p5 = p6;
					p8 = p9;

					yc = y1+x;
					p3 = *(source+y0+x);
					p6 = *(source+yc);
    1dbc:	53800003 	ldbu	r14,0(r10)
					p9 = *(source+y2+x);

					int a = p1 - p9;
					int b = p3 - p7;
    1dc0:	68b9c83a 	sub	fp,r13,r2
					yc = y1+x;
					p3 = *(source+y0+x);
					p6 = *(source+yc);
					p9 = *(source+y2+x);

					int a = p1 - p9;
    1dc4:	3b2dc83a 	sub	r22,r7,r12
					int b = p3 - p7;
					IOWR_8DIRECT(sobel_result,yc-1,ALT_CI_THRESHOLD_0(
    1dc8:	b705883a 	add	r2,r22,fp
    1dcc:	e5b9c83a 	sub	fp,fp,r22
    1dd0:	d5a71b17 	ldw	r22,-25492(gp)
    1dd4:	9d4dc83a 	sub	r6,r19,r21
    1dd8:	75cfc83a 	sub	r7,r14,r23
    1ddc:	3187883a 	add	r3,r6,r6
    1de0:	39ef883a 	add	r23,r7,r7
    1de4:	b2cd883a 	add	r6,r22,r11
    1de8:	188f883a 	add	r7,r3,r2
    1dec:	bf07883a 	add	r3,r23,fp
    1df0:	38c5c132 	custom	4,r2,r7,r3
    1df4:	116fc0b2 	custom	2,r23,r2,r5
    1df8:	35c00025 	stbio	r23,0(r6)
    1dfc:	6b39c83a 	sub	fp,r13,r12
    1e00:	59c00044 	addi	r7,r11,1
    1e04:	e707883a 	add	r3,fp,fp
    1e08:	4d800044 	addi	r22,r9,1
    1e0c:	51800044 	addi	r6,r10,1
    1e10:	40800044 	addi	r2,r8,1

				p3 = *(source+y0);
				p6 = *(source+y1);
				p9 = *(source+y2);

				for (x = 1 ; x < width_len ; x++) {
    1e14:	79ffcd1e 	bne	r15,r7,1d4c <__alt_data_end+0xff001d4c>
    1e18:	d3e71c17 	ldw	r15,-25488(gp)
    1e1c:	7b3fffc4 	addi	r12,r15,-1
void sobel_complete(unsigned char *source, short threshold){
		int x,y;
		int y1, y2, y0, yc;
		int p1, p2, p3, p4, p5, p6, p7, p8, p9;
		int width_len = sobel_width-1;
		for (y = 1 ; y < (sobel_height-1) ; y++) {
    1e20:	fb3f8f16 	blt	ra,r12,1c60 <__alt_data_end+0xff001c60>
					IOWR_8DIRECT(sobel_result,yc-1,ALT_CI_THRESHOLD_0(
							ALT_CI_ABSOLUTE_MULTIPLE_0(a + b + 2 * (p2 - p8),b - a + 2 * (p6 - p4))
							,threshold));
				}
			}
}
    1e24:	dfc00917 	ldw	ra,36(sp)
    1e28:	df000817 	ldw	fp,32(sp)
    1e2c:	ddc00717 	ldw	r23,28(sp)
    1e30:	dd800617 	ldw	r22,24(sp)
    1e34:	dd400517 	ldw	r21,20(sp)
    1e38:	dd000417 	ldw	r20,16(sp)
    1e3c:	dcc00317 	ldw	r19,12(sp)
    1e40:	dc800217 	ldw	r18,8(sp)
    1e44:	dc400117 	ldw	r17,4(sp)
    1e48:	dc000017 	ldw	r16,0(sp)
    1e4c:	dec00a04 	addi	sp,sp,40
    1e50:	f800283a 	ret

00001e54 <vga_set_pointer>:

#include <system.h>
#include <io.h>

void vga_set_pointer( void* image ) {
	IOWR_32DIRECT(VGA_DMA_0_BASE,0,(int)image);
    1e54:	00804034 	movhi	r2,256
    1e58:	10c43404 	addi	r3,r2,4304
    1e5c:	19000035 	stwio	r4,0(r3)
    1e60:	f800283a 	ret

00001e64 <vga_set_swap>:
}

void vga_set_swap(char swap) {
	IOWR_8DIRECT(VGA_DMA_0_BASE,4,swap);
    1e64:	00804034 	movhi	r2,256
    1e68:	10c43504 	addi	r3,r2,4308
    1e6c:	19000025 	stbio	r4,0(r3)
    1e70:	f800283a 	ret

00001e74 <__divsi3>:
    1e74:	20001b16 	blt	r4,zero,1ee4 <__divsi3+0x70>
    1e78:	000f883a 	mov	r7,zero
    1e7c:	28001616 	blt	r5,zero,1ed8 <__divsi3+0x64>
    1e80:	200d883a 	mov	r6,r4
    1e84:	29001a2e 	bgeu	r5,r4,1ef0 <__divsi3+0x7c>
    1e88:	00800804 	movi	r2,32
    1e8c:	00c00044 	movi	r3,1
    1e90:	00000106 	br	1e98 <__divsi3+0x24>
    1e94:	10000d26 	beq	r2,zero,1ecc <__divsi3+0x58>
    1e98:	294b883a 	add	r5,r5,r5
    1e9c:	10bfffc4 	addi	r2,r2,-1
    1ea0:	18c7883a 	add	r3,r3,r3
    1ea4:	293ffb36 	bltu	r5,r4,1e94 <__alt_data_end+0xff001e94>
    1ea8:	0005883a 	mov	r2,zero
    1eac:	18000726 	beq	r3,zero,1ecc <__divsi3+0x58>
    1eb0:	0005883a 	mov	r2,zero
    1eb4:	31400236 	bltu	r6,r5,1ec0 <__divsi3+0x4c>
    1eb8:	314dc83a 	sub	r6,r6,r5
    1ebc:	10c4b03a 	or	r2,r2,r3
    1ec0:	1806d07a 	srli	r3,r3,1
    1ec4:	280ad07a 	srli	r5,r5,1
    1ec8:	183ffa1e 	bne	r3,zero,1eb4 <__alt_data_end+0xff001eb4>
    1ecc:	38000126 	beq	r7,zero,1ed4 <__divsi3+0x60>
    1ed0:	0085c83a 	sub	r2,zero,r2
    1ed4:	f800283a 	ret
    1ed8:	014bc83a 	sub	r5,zero,r5
    1edc:	39c0005c 	xori	r7,r7,1
    1ee0:	003fe706 	br	1e80 <__alt_data_end+0xff001e80>
    1ee4:	0109c83a 	sub	r4,zero,r4
    1ee8:	01c00044 	movi	r7,1
    1eec:	003fe306 	br	1e7c <__alt_data_end+0xff001e7c>
    1ef0:	00c00044 	movi	r3,1
    1ef4:	003fee06 	br	1eb0 <__alt_data_end+0xff001eb0>

00001ef8 <__modsi3>:
    1ef8:	20001716 	blt	r4,zero,1f58 <__modsi3+0x60>
    1efc:	000f883a 	mov	r7,zero
    1f00:	2005883a 	mov	r2,r4
    1f04:	28001216 	blt	r5,zero,1f50 <__modsi3+0x58>
    1f08:	2900162e 	bgeu	r5,r4,1f64 <__modsi3+0x6c>
    1f0c:	01800804 	movi	r6,32
    1f10:	00c00044 	movi	r3,1
    1f14:	00000106 	br	1f1c <__modsi3+0x24>
    1f18:	30000a26 	beq	r6,zero,1f44 <__modsi3+0x4c>
    1f1c:	294b883a 	add	r5,r5,r5
    1f20:	31bfffc4 	addi	r6,r6,-1
    1f24:	18c7883a 	add	r3,r3,r3
    1f28:	293ffb36 	bltu	r5,r4,1f18 <__alt_data_end+0xff001f18>
    1f2c:	18000526 	beq	r3,zero,1f44 <__modsi3+0x4c>
    1f30:	1806d07a 	srli	r3,r3,1
    1f34:	11400136 	bltu	r2,r5,1f3c <__modsi3+0x44>
    1f38:	1145c83a 	sub	r2,r2,r5
    1f3c:	280ad07a 	srli	r5,r5,1
    1f40:	183ffb1e 	bne	r3,zero,1f30 <__alt_data_end+0xff001f30>
    1f44:	38000126 	beq	r7,zero,1f4c <__modsi3+0x54>
    1f48:	0085c83a 	sub	r2,zero,r2
    1f4c:	f800283a 	ret
    1f50:	014bc83a 	sub	r5,zero,r5
    1f54:	003fec06 	br	1f08 <__alt_data_end+0xff001f08>
    1f58:	0109c83a 	sub	r4,zero,r4
    1f5c:	01c00044 	movi	r7,1
    1f60:	003fe706 	br	1f00 <__alt_data_end+0xff001f00>
    1f64:	00c00044 	movi	r3,1
    1f68:	003ff106 	br	1f30 <__alt_data_end+0xff001f30>

00001f6c <__udivsi3>:
    1f6c:	200d883a 	mov	r6,r4
    1f70:	2900152e 	bgeu	r5,r4,1fc8 <__udivsi3+0x5c>
    1f74:	28001416 	blt	r5,zero,1fc8 <__udivsi3+0x5c>
    1f78:	00800804 	movi	r2,32
    1f7c:	00c00044 	movi	r3,1
    1f80:	00000206 	br	1f8c <__udivsi3+0x20>
    1f84:	10000e26 	beq	r2,zero,1fc0 <__udivsi3+0x54>
    1f88:	28000516 	blt	r5,zero,1fa0 <__udivsi3+0x34>
    1f8c:	294b883a 	add	r5,r5,r5
    1f90:	10bfffc4 	addi	r2,r2,-1
    1f94:	18c7883a 	add	r3,r3,r3
    1f98:	293ffa36 	bltu	r5,r4,1f84 <__alt_data_end+0xff001f84>
    1f9c:	18000826 	beq	r3,zero,1fc0 <__udivsi3+0x54>
    1fa0:	0005883a 	mov	r2,zero
    1fa4:	31400236 	bltu	r6,r5,1fb0 <__udivsi3+0x44>
    1fa8:	314dc83a 	sub	r6,r6,r5
    1fac:	10c4b03a 	or	r2,r2,r3
    1fb0:	1806d07a 	srli	r3,r3,1
    1fb4:	280ad07a 	srli	r5,r5,1
    1fb8:	183ffa1e 	bne	r3,zero,1fa4 <__alt_data_end+0xff001fa4>
    1fbc:	f800283a 	ret
    1fc0:	0005883a 	mov	r2,zero
    1fc4:	f800283a 	ret
    1fc8:	00c00044 	movi	r3,1
    1fcc:	003ff406 	br	1fa0 <__alt_data_end+0xff001fa0>

00001fd0 <__umodsi3>:
    1fd0:	2005883a 	mov	r2,r4
    1fd4:	2900122e 	bgeu	r5,r4,2020 <__umodsi3+0x50>
    1fd8:	28001116 	blt	r5,zero,2020 <__umodsi3+0x50>
    1fdc:	01800804 	movi	r6,32
    1fe0:	00c00044 	movi	r3,1
    1fe4:	00000206 	br	1ff0 <__umodsi3+0x20>
    1fe8:	30000c26 	beq	r6,zero,201c <__umodsi3+0x4c>
    1fec:	28000516 	blt	r5,zero,2004 <__umodsi3+0x34>
    1ff0:	294b883a 	add	r5,r5,r5
    1ff4:	31bfffc4 	addi	r6,r6,-1
    1ff8:	18c7883a 	add	r3,r3,r3
    1ffc:	293ffa36 	bltu	r5,r4,1fe8 <__alt_data_end+0xff001fe8>
    2000:	18000626 	beq	r3,zero,201c <__umodsi3+0x4c>
    2004:	1806d07a 	srli	r3,r3,1
    2008:	11400136 	bltu	r2,r5,2010 <__umodsi3+0x40>
    200c:	1145c83a 	sub	r2,r2,r5
    2010:	280ad07a 	srli	r5,r5,1
    2014:	183ffb1e 	bne	r3,zero,2004 <__alt_data_end+0xff002004>
    2018:	f800283a 	ret
    201c:	f800283a 	ret
    2020:	00c00044 	movi	r3,1
    2024:	003ff706 	br	2004 <__alt_data_end+0xff002004>

00002028 <__divdf3>:
    2028:	defff204 	addi	sp,sp,-56
    202c:	dd400915 	stw	r21,36(sp)
    2030:	282ad53a 	srli	r21,r5,20
    2034:	dd000815 	stw	r20,32(sp)
    2038:	2828d7fa 	srli	r20,r5,31
    203c:	dc000415 	stw	r16,16(sp)
    2040:	04000434 	movhi	r16,16
    2044:	df000c15 	stw	fp,48(sp)
    2048:	843fffc4 	addi	r16,r16,-1
    204c:	dfc00d15 	stw	ra,52(sp)
    2050:	ddc00b15 	stw	r23,44(sp)
    2054:	dd800a15 	stw	r22,40(sp)
    2058:	dcc00715 	stw	r19,28(sp)
    205c:	dc800615 	stw	r18,24(sp)
    2060:	dc400515 	stw	r17,20(sp)
    2064:	ad41ffcc 	andi	r21,r21,2047
    2068:	2c20703a 	and	r16,r5,r16
    206c:	a7003fcc 	andi	fp,r20,255
    2070:	a8006126 	beq	r21,zero,21f8 <__divdf3+0x1d0>
    2074:	0081ffc4 	movi	r2,2047
    2078:	2025883a 	mov	r18,r4
    207c:	a8803726 	beq	r21,r2,215c <__divdf3+0x134>
    2080:	80800434 	orhi	r2,r16,16
    2084:	100490fa 	slli	r2,r2,3
    2088:	2020d77a 	srli	r16,r4,29
    208c:	202490fa 	slli	r18,r4,3
    2090:	ad7f0044 	addi	r21,r21,-1023
    2094:	80a0b03a 	or	r16,r16,r2
    2098:	0027883a 	mov	r19,zero
    209c:	0013883a 	mov	r9,zero
    20a0:	3804d53a 	srli	r2,r7,20
    20a4:	382cd7fa 	srli	r22,r7,31
    20a8:	04400434 	movhi	r17,16
    20ac:	8c7fffc4 	addi	r17,r17,-1
    20b0:	1081ffcc 	andi	r2,r2,2047
    20b4:	3011883a 	mov	r8,r6
    20b8:	3c62703a 	and	r17,r7,r17
    20bc:	b5c03fcc 	andi	r23,r22,255
    20c0:	10006c26 	beq	r2,zero,2274 <__divdf3+0x24c>
    20c4:	00c1ffc4 	movi	r3,2047
    20c8:	10c06426 	beq	r2,r3,225c <__divdf3+0x234>
    20cc:	88c00434 	orhi	r3,r17,16
    20d0:	180690fa 	slli	r3,r3,3
    20d4:	3022d77a 	srli	r17,r6,29
    20d8:	301090fa 	slli	r8,r6,3
    20dc:	10bf0044 	addi	r2,r2,-1023
    20e0:	88e2b03a 	or	r17,r17,r3
    20e4:	000f883a 	mov	r7,zero
    20e8:	a58cf03a 	xor	r6,r20,r22
    20ec:	3cc8b03a 	or	r4,r7,r19
    20f0:	a8abc83a 	sub	r21,r21,r2
    20f4:	008003c4 	movi	r2,15
    20f8:	3007883a 	mov	r3,r6
    20fc:	34c03fcc 	andi	r19,r6,255
    2100:	11009036 	bltu	r2,r4,2344 <__divdf3+0x31c>
    2104:	200890ba 	slli	r4,r4,2
    2108:	00800034 	movhi	r2,0
    210c:	10884704 	addi	r2,r2,8476
    2110:	2089883a 	add	r4,r4,r2
    2114:	20800017 	ldw	r2,0(r4)
    2118:	1000683a 	jmp	r2
    211c:	00002344 	movi	zero,141
    2120:	00002194 	movui	zero,134
    2124:	00002334 	movhi	zero,140
    2128:	00002188 	cmpgei	zero,zero,134
    212c:	00002334 	movhi	zero,140
    2130:	00002308 	cmpgei	zero,zero,140
    2134:	00002334 	movhi	zero,140
    2138:	00002188 	cmpgei	zero,zero,134
    213c:	00002194 	movui	zero,134
    2140:	00002194 	movui	zero,134
    2144:	00002308 	cmpgei	zero,zero,140
    2148:	00002188 	cmpgei	zero,zero,134
    214c:	00002178 	rdprs	zero,zero,133
    2150:	00002178 	rdprs	zero,zero,133
    2154:	00002178 	rdprs	zero,zero,133
    2158:	00002628 	cmpgeui	zero,zero,152
    215c:	2404b03a 	or	r2,r4,r16
    2160:	1000661e 	bne	r2,zero,22fc <__divdf3+0x2d4>
    2164:	04c00204 	movi	r19,8
    2168:	0021883a 	mov	r16,zero
    216c:	0025883a 	mov	r18,zero
    2170:	02400084 	movi	r9,2
    2174:	003fca06 	br	20a0 <__alt_data_end+0xff0020a0>
    2178:	8023883a 	mov	r17,r16
    217c:	9011883a 	mov	r8,r18
    2180:	e02f883a 	mov	r23,fp
    2184:	480f883a 	mov	r7,r9
    2188:	00800084 	movi	r2,2
    218c:	3881311e 	bne	r7,r2,2654 <__divdf3+0x62c>
    2190:	b827883a 	mov	r19,r23
    2194:	98c0004c 	andi	r3,r19,1
    2198:	0081ffc4 	movi	r2,2047
    219c:	000b883a 	mov	r5,zero
    21a0:	0025883a 	mov	r18,zero
    21a4:	1004953a 	slli	r2,r2,20
    21a8:	18c03fcc 	andi	r3,r3,255
    21ac:	04400434 	movhi	r17,16
    21b0:	8c7fffc4 	addi	r17,r17,-1
    21b4:	180697fa 	slli	r3,r3,31
    21b8:	2c4a703a 	and	r5,r5,r17
    21bc:	288ab03a 	or	r5,r5,r2
    21c0:	28c6b03a 	or	r3,r5,r3
    21c4:	9005883a 	mov	r2,r18
    21c8:	dfc00d17 	ldw	ra,52(sp)
    21cc:	df000c17 	ldw	fp,48(sp)
    21d0:	ddc00b17 	ldw	r23,44(sp)
    21d4:	dd800a17 	ldw	r22,40(sp)
    21d8:	dd400917 	ldw	r21,36(sp)
    21dc:	dd000817 	ldw	r20,32(sp)
    21e0:	dcc00717 	ldw	r19,28(sp)
    21e4:	dc800617 	ldw	r18,24(sp)
    21e8:	dc400517 	ldw	r17,20(sp)
    21ec:	dc000417 	ldw	r16,16(sp)
    21f0:	dec00e04 	addi	sp,sp,56
    21f4:	f800283a 	ret
    21f8:	2404b03a 	or	r2,r4,r16
    21fc:	2027883a 	mov	r19,r4
    2200:	10003926 	beq	r2,zero,22e8 <__divdf3+0x2c0>
    2204:	80012e26 	beq	r16,zero,26c0 <__divdf3+0x698>
    2208:	8009883a 	mov	r4,r16
    220c:	d9800315 	stw	r6,12(sp)
    2210:	d9c00215 	stw	r7,8(sp)
    2214:	00029b80 	call	29b8 <__clzsi2>
    2218:	d9800317 	ldw	r6,12(sp)
    221c:	d9c00217 	ldw	r7,8(sp)
    2220:	113ffd44 	addi	r4,r2,-11
    2224:	00c00704 	movi	r3,28
    2228:	19012116 	blt	r3,r4,26b0 <__divdf3+0x688>
    222c:	00c00744 	movi	r3,29
    2230:	147ffe04 	addi	r17,r2,-8
    2234:	1907c83a 	sub	r3,r3,r4
    2238:	8460983a 	sll	r16,r16,r17
    223c:	98c6d83a 	srl	r3,r19,r3
    2240:	9c64983a 	sll	r18,r19,r17
    2244:	1c20b03a 	or	r16,r3,r16
    2248:	1080fcc4 	addi	r2,r2,1011
    224c:	00abc83a 	sub	r21,zero,r2
    2250:	0027883a 	mov	r19,zero
    2254:	0013883a 	mov	r9,zero
    2258:	003f9106 	br	20a0 <__alt_data_end+0xff0020a0>
    225c:	3446b03a 	or	r3,r6,r17
    2260:	18001f1e 	bne	r3,zero,22e0 <__divdf3+0x2b8>
    2264:	0023883a 	mov	r17,zero
    2268:	0011883a 	mov	r8,zero
    226c:	01c00084 	movi	r7,2
    2270:	003f9d06 	br	20e8 <__alt_data_end+0xff0020e8>
    2274:	3446b03a 	or	r3,r6,r17
    2278:	18001526 	beq	r3,zero,22d0 <__divdf3+0x2a8>
    227c:	88011b26 	beq	r17,zero,26ec <__divdf3+0x6c4>
    2280:	8809883a 	mov	r4,r17
    2284:	d9800315 	stw	r6,12(sp)
    2288:	da400115 	stw	r9,4(sp)
    228c:	00029b80 	call	29b8 <__clzsi2>
    2290:	d9800317 	ldw	r6,12(sp)
    2294:	da400117 	ldw	r9,4(sp)
    2298:	113ffd44 	addi	r4,r2,-11
    229c:	00c00704 	movi	r3,28
    22a0:	19010e16 	blt	r3,r4,26dc <__divdf3+0x6b4>
    22a4:	00c00744 	movi	r3,29
    22a8:	123ffe04 	addi	r8,r2,-8
    22ac:	1907c83a 	sub	r3,r3,r4
    22b0:	8a22983a 	sll	r17,r17,r8
    22b4:	30c6d83a 	srl	r3,r6,r3
    22b8:	3210983a 	sll	r8,r6,r8
    22bc:	1c62b03a 	or	r17,r3,r17
    22c0:	1080fcc4 	addi	r2,r2,1011
    22c4:	0085c83a 	sub	r2,zero,r2
    22c8:	000f883a 	mov	r7,zero
    22cc:	003f8606 	br	20e8 <__alt_data_end+0xff0020e8>
    22d0:	0023883a 	mov	r17,zero
    22d4:	0011883a 	mov	r8,zero
    22d8:	01c00044 	movi	r7,1
    22dc:	003f8206 	br	20e8 <__alt_data_end+0xff0020e8>
    22e0:	01c000c4 	movi	r7,3
    22e4:	003f8006 	br	20e8 <__alt_data_end+0xff0020e8>
    22e8:	04c00104 	movi	r19,4
    22ec:	0021883a 	mov	r16,zero
    22f0:	0025883a 	mov	r18,zero
    22f4:	02400044 	movi	r9,1
    22f8:	003f6906 	br	20a0 <__alt_data_end+0xff0020a0>
    22fc:	04c00304 	movi	r19,12
    2300:	024000c4 	movi	r9,3
    2304:	003f6606 	br	20a0 <__alt_data_end+0xff0020a0>
    2308:	01400434 	movhi	r5,16
    230c:	0007883a 	mov	r3,zero
    2310:	297fffc4 	addi	r5,r5,-1
    2314:	04bfffc4 	movi	r18,-1
    2318:	0081ffc4 	movi	r2,2047
    231c:	003fa106 	br	21a4 <__alt_data_end+0xff0021a4>
    2320:	00c00044 	movi	r3,1
    2324:	1887c83a 	sub	r3,r3,r2
    2328:	01000e04 	movi	r4,56
    232c:	20c1210e 	bge	r4,r3,27b4 <__divdf3+0x78c>
    2330:	98c0004c 	andi	r3,r19,1
    2334:	0005883a 	mov	r2,zero
    2338:	000b883a 	mov	r5,zero
    233c:	0025883a 	mov	r18,zero
    2340:	003f9806 	br	21a4 <__alt_data_end+0xff0021a4>
    2344:	8c00fd36 	bltu	r17,r16,273c <__divdf3+0x714>
    2348:	8440fb26 	beq	r16,r17,2738 <__divdf3+0x710>
    234c:	8007883a 	mov	r3,r16
    2350:	ad7fffc4 	addi	r21,r21,-1
    2354:	0021883a 	mov	r16,zero
    2358:	4004d63a 	srli	r2,r8,24
    235c:	8822923a 	slli	r17,r17,8
    2360:	1809883a 	mov	r4,r3
    2364:	402c923a 	slli	r22,r8,8
    2368:	88b8b03a 	or	fp,r17,r2
    236c:	e028d43a 	srli	r20,fp,16
    2370:	d8c00015 	stw	r3,0(sp)
    2374:	e5ffffcc 	andi	r23,fp,65535
    2378:	a00b883a 	mov	r5,r20
    237c:	0001f6c0 	call	1f6c <__udivsi3>
    2380:	d8c00017 	ldw	r3,0(sp)
    2384:	a00b883a 	mov	r5,r20
    2388:	d8800315 	stw	r2,12(sp)
    238c:	1809883a 	mov	r4,r3
    2390:	0001fd00 	call	1fd0 <__umodsi3>
    2394:	d9800317 	ldw	r6,12(sp)
    2398:	1006943a 	slli	r3,r2,16
    239c:	9004d43a 	srli	r2,r18,16
    23a0:	b9a3383a 	mul	r17,r23,r6
    23a4:	10c4b03a 	or	r2,r2,r3
    23a8:	1440062e 	bgeu	r2,r17,23c4 <__divdf3+0x39c>
    23ac:	1705883a 	add	r2,r2,fp
    23b0:	30ffffc4 	addi	r3,r6,-1
    23b4:	1700ee36 	bltu	r2,fp,2770 <__divdf3+0x748>
    23b8:	1440ed2e 	bgeu	r2,r17,2770 <__divdf3+0x748>
    23bc:	31bfff84 	addi	r6,r6,-2
    23c0:	1705883a 	add	r2,r2,fp
    23c4:	1463c83a 	sub	r17,r2,r17
    23c8:	a00b883a 	mov	r5,r20
    23cc:	8809883a 	mov	r4,r17
    23d0:	d9800315 	stw	r6,12(sp)
    23d4:	0001f6c0 	call	1f6c <__udivsi3>
    23d8:	a00b883a 	mov	r5,r20
    23dc:	8809883a 	mov	r4,r17
    23e0:	d8800215 	stw	r2,8(sp)
    23e4:	0001fd00 	call	1fd0 <__umodsi3>
    23e8:	d9c00217 	ldw	r7,8(sp)
    23ec:	1004943a 	slli	r2,r2,16
    23f0:	94bfffcc 	andi	r18,r18,65535
    23f4:	b9d1383a 	mul	r8,r23,r7
    23f8:	90a4b03a 	or	r18,r18,r2
    23fc:	d9800317 	ldw	r6,12(sp)
    2400:	9200062e 	bgeu	r18,r8,241c <__divdf3+0x3f4>
    2404:	9725883a 	add	r18,r18,fp
    2408:	38bfffc4 	addi	r2,r7,-1
    240c:	9700d636 	bltu	r18,fp,2768 <__divdf3+0x740>
    2410:	9200d52e 	bgeu	r18,r8,2768 <__divdf3+0x740>
    2414:	39ffff84 	addi	r7,r7,-2
    2418:	9725883a 	add	r18,r18,fp
    241c:	3004943a 	slli	r2,r6,16
    2420:	b012d43a 	srli	r9,r22,16
    2424:	b1bfffcc 	andi	r6,r22,65535
    2428:	11e2b03a 	or	r17,r2,r7
    242c:	8806d43a 	srli	r3,r17,16
    2430:	893fffcc 	andi	r4,r17,65535
    2434:	218b383a 	mul	r5,r4,r6
    2438:	30c5383a 	mul	r2,r6,r3
    243c:	2249383a 	mul	r4,r4,r9
    2440:	280ed43a 	srli	r7,r5,16
    2444:	9225c83a 	sub	r18,r18,r8
    2448:	2089883a 	add	r4,r4,r2
    244c:	3909883a 	add	r4,r7,r4
    2450:	1a47383a 	mul	r3,r3,r9
    2454:	2080022e 	bgeu	r4,r2,2460 <__divdf3+0x438>
    2458:	00800074 	movhi	r2,1
    245c:	1887883a 	add	r3,r3,r2
    2460:	2004d43a 	srli	r2,r4,16
    2464:	2008943a 	slli	r4,r4,16
    2468:	297fffcc 	andi	r5,r5,65535
    246c:	10c7883a 	add	r3,r2,r3
    2470:	2149883a 	add	r4,r4,r5
    2474:	90c0a536 	bltu	r18,r3,270c <__divdf3+0x6e4>
    2478:	90c0bf26 	beq	r18,r3,2778 <__divdf3+0x750>
    247c:	90c7c83a 	sub	r3,r18,r3
    2480:	810fc83a 	sub	r7,r16,r4
    2484:	81e5803a 	cmpltu	r18,r16,r7
    2488:	1ca5c83a 	sub	r18,r3,r18
    248c:	e480c126 	beq	fp,r18,2794 <__divdf3+0x76c>
    2490:	a00b883a 	mov	r5,r20
    2494:	9009883a 	mov	r4,r18
    2498:	d9800315 	stw	r6,12(sp)
    249c:	d9c00215 	stw	r7,8(sp)
    24a0:	da400115 	stw	r9,4(sp)
    24a4:	0001f6c0 	call	1f6c <__udivsi3>
    24a8:	a00b883a 	mov	r5,r20
    24ac:	9009883a 	mov	r4,r18
    24b0:	d8800015 	stw	r2,0(sp)
    24b4:	0001fd00 	call	1fd0 <__umodsi3>
    24b8:	d9c00217 	ldw	r7,8(sp)
    24bc:	da000017 	ldw	r8,0(sp)
    24c0:	1006943a 	slli	r3,r2,16
    24c4:	3804d43a 	srli	r2,r7,16
    24c8:	ba21383a 	mul	r16,r23,r8
    24cc:	d9800317 	ldw	r6,12(sp)
    24d0:	10c4b03a 	or	r2,r2,r3
    24d4:	da400117 	ldw	r9,4(sp)
    24d8:	1400062e 	bgeu	r2,r16,24f4 <__divdf3+0x4cc>
    24dc:	1705883a 	add	r2,r2,fp
    24e0:	40ffffc4 	addi	r3,r8,-1
    24e4:	1700ad36 	bltu	r2,fp,279c <__divdf3+0x774>
    24e8:	1400ac2e 	bgeu	r2,r16,279c <__divdf3+0x774>
    24ec:	423fff84 	addi	r8,r8,-2
    24f0:	1705883a 	add	r2,r2,fp
    24f4:	1421c83a 	sub	r16,r2,r16
    24f8:	a00b883a 	mov	r5,r20
    24fc:	8009883a 	mov	r4,r16
    2500:	d9800315 	stw	r6,12(sp)
    2504:	d9c00215 	stw	r7,8(sp)
    2508:	da000015 	stw	r8,0(sp)
    250c:	da400115 	stw	r9,4(sp)
    2510:	0001f6c0 	call	1f6c <__udivsi3>
    2514:	8009883a 	mov	r4,r16
    2518:	a00b883a 	mov	r5,r20
    251c:	1025883a 	mov	r18,r2
    2520:	0001fd00 	call	1fd0 <__umodsi3>
    2524:	d9c00217 	ldw	r7,8(sp)
    2528:	1004943a 	slli	r2,r2,16
    252c:	bcaf383a 	mul	r23,r23,r18
    2530:	393fffcc 	andi	r4,r7,65535
    2534:	2088b03a 	or	r4,r4,r2
    2538:	d9800317 	ldw	r6,12(sp)
    253c:	da000017 	ldw	r8,0(sp)
    2540:	da400117 	ldw	r9,4(sp)
    2544:	25c0062e 	bgeu	r4,r23,2560 <__divdf3+0x538>
    2548:	2709883a 	add	r4,r4,fp
    254c:	90bfffc4 	addi	r2,r18,-1
    2550:	27009436 	bltu	r4,fp,27a4 <__divdf3+0x77c>
    2554:	25c0932e 	bgeu	r4,r23,27a4 <__divdf3+0x77c>
    2558:	94bfff84 	addi	r18,r18,-2
    255c:	2709883a 	add	r4,r4,fp
    2560:	4004943a 	slli	r2,r8,16
    2564:	25efc83a 	sub	r23,r4,r23
    2568:	1490b03a 	or	r8,r2,r18
    256c:	4008d43a 	srli	r4,r8,16
    2570:	40ffffcc 	andi	r3,r8,65535
    2574:	30c5383a 	mul	r2,r6,r3
    2578:	1a47383a 	mul	r3,r3,r9
    257c:	310d383a 	mul	r6,r6,r4
    2580:	100ad43a 	srli	r5,r2,16
    2584:	4913383a 	mul	r9,r9,r4
    2588:	1987883a 	add	r3,r3,r6
    258c:	28c7883a 	add	r3,r5,r3
    2590:	1980022e 	bgeu	r3,r6,259c <__divdf3+0x574>
    2594:	01000074 	movhi	r4,1
    2598:	4913883a 	add	r9,r9,r4
    259c:	1808d43a 	srli	r4,r3,16
    25a0:	1806943a 	slli	r3,r3,16
    25a4:	10bfffcc 	andi	r2,r2,65535
    25a8:	2253883a 	add	r9,r4,r9
    25ac:	1887883a 	add	r3,r3,r2
    25b0:	ba403836 	bltu	r23,r9,2694 <__divdf3+0x66c>
    25b4:	ba403626 	beq	r23,r9,2690 <__divdf3+0x668>
    25b8:	42000054 	ori	r8,r8,1
    25bc:	a880ffc4 	addi	r2,r21,1023
    25c0:	00bf570e 	bge	zero,r2,2320 <__alt_data_end+0xff002320>
    25c4:	40c001cc 	andi	r3,r8,7
    25c8:	18000726 	beq	r3,zero,25e8 <__divdf3+0x5c0>
    25cc:	40c003cc 	andi	r3,r8,15
    25d0:	01000104 	movi	r4,4
    25d4:	19000426 	beq	r3,r4,25e8 <__divdf3+0x5c0>
    25d8:	4107883a 	add	r3,r8,r4
    25dc:	1a11803a 	cmpltu	r8,r3,r8
    25e0:	8a23883a 	add	r17,r17,r8
    25e4:	1811883a 	mov	r8,r3
    25e8:	88c0402c 	andhi	r3,r17,256
    25ec:	18000426 	beq	r3,zero,2600 <__divdf3+0x5d8>
    25f0:	00ffc034 	movhi	r3,65280
    25f4:	18ffffc4 	addi	r3,r3,-1
    25f8:	a8810004 	addi	r2,r21,1024
    25fc:	88e2703a 	and	r17,r17,r3
    2600:	00c1ff84 	movi	r3,2046
    2604:	18bee316 	blt	r3,r2,2194 <__alt_data_end+0xff002194>
    2608:	8824977a 	slli	r18,r17,29
    260c:	4010d0fa 	srli	r8,r8,3
    2610:	8822927a 	slli	r17,r17,9
    2614:	1081ffcc 	andi	r2,r2,2047
    2618:	9224b03a 	or	r18,r18,r8
    261c:	880ad33a 	srli	r5,r17,12
    2620:	98c0004c 	andi	r3,r19,1
    2624:	003edf06 	br	21a4 <__alt_data_end+0xff0021a4>
    2628:	8080022c 	andhi	r2,r16,8
    262c:	10001226 	beq	r2,zero,2678 <__divdf3+0x650>
    2630:	8880022c 	andhi	r2,r17,8
    2634:	1000101e 	bne	r2,zero,2678 <__divdf3+0x650>
    2638:	00800434 	movhi	r2,16
    263c:	89400234 	orhi	r5,r17,8
    2640:	10bfffc4 	addi	r2,r2,-1
    2644:	b007883a 	mov	r3,r22
    2648:	288a703a 	and	r5,r5,r2
    264c:	4025883a 	mov	r18,r8
    2650:	003f3106 	br	2318 <__alt_data_end+0xff002318>
    2654:	008000c4 	movi	r2,3
    2658:	3880a626 	beq	r7,r2,28f4 <__divdf3+0x8cc>
    265c:	00800044 	movi	r2,1
    2660:	3880521e 	bne	r7,r2,27ac <__divdf3+0x784>
    2664:	b807883a 	mov	r3,r23
    2668:	0005883a 	mov	r2,zero
    266c:	000b883a 	mov	r5,zero
    2670:	0025883a 	mov	r18,zero
    2674:	003ecb06 	br	21a4 <__alt_data_end+0xff0021a4>
    2678:	00800434 	movhi	r2,16
    267c:	81400234 	orhi	r5,r16,8
    2680:	10bfffc4 	addi	r2,r2,-1
    2684:	a007883a 	mov	r3,r20
    2688:	288a703a 	and	r5,r5,r2
    268c:	003f2206 	br	2318 <__alt_data_end+0xff002318>
    2690:	183fca26 	beq	r3,zero,25bc <__alt_data_end+0xff0025bc>
    2694:	e5ef883a 	add	r23,fp,r23
    2698:	40bfffc4 	addi	r2,r8,-1
    269c:	bf00392e 	bgeu	r23,fp,2784 <__divdf3+0x75c>
    26a0:	1011883a 	mov	r8,r2
    26a4:	ba7fc41e 	bne	r23,r9,25b8 <__alt_data_end+0xff0025b8>
    26a8:	b0ffc31e 	bne	r22,r3,25b8 <__alt_data_end+0xff0025b8>
    26ac:	003fc306 	br	25bc <__alt_data_end+0xff0025bc>
    26b0:	143ff604 	addi	r16,r2,-40
    26b4:	9c20983a 	sll	r16,r19,r16
    26b8:	0025883a 	mov	r18,zero
    26bc:	003ee206 	br	2248 <__alt_data_end+0xff002248>
    26c0:	d9800315 	stw	r6,12(sp)
    26c4:	d9c00215 	stw	r7,8(sp)
    26c8:	00029b80 	call	29b8 <__clzsi2>
    26cc:	10800804 	addi	r2,r2,32
    26d0:	d9c00217 	ldw	r7,8(sp)
    26d4:	d9800317 	ldw	r6,12(sp)
    26d8:	003ed106 	br	2220 <__alt_data_end+0xff002220>
    26dc:	147ff604 	addi	r17,r2,-40
    26e0:	3462983a 	sll	r17,r6,r17
    26e4:	0011883a 	mov	r8,zero
    26e8:	003ef506 	br	22c0 <__alt_data_end+0xff0022c0>
    26ec:	3009883a 	mov	r4,r6
    26f0:	d9800315 	stw	r6,12(sp)
    26f4:	da400115 	stw	r9,4(sp)
    26f8:	00029b80 	call	29b8 <__clzsi2>
    26fc:	10800804 	addi	r2,r2,32
    2700:	da400117 	ldw	r9,4(sp)
    2704:	d9800317 	ldw	r6,12(sp)
    2708:	003ee306 	br	2298 <__alt_data_end+0xff002298>
    270c:	85a1883a 	add	r16,r16,r22
    2710:	8585803a 	cmpltu	r2,r16,r22
    2714:	1705883a 	add	r2,r2,fp
    2718:	14a5883a 	add	r18,r2,r18
    271c:	88bfffc4 	addi	r2,r17,-1
    2720:	e4800c2e 	bgeu	fp,r18,2754 <__divdf3+0x72c>
    2724:	90c03e36 	bltu	r18,r3,2820 <__divdf3+0x7f8>
    2728:	1c806926 	beq	r3,r18,28d0 <__divdf3+0x8a8>
    272c:	90c7c83a 	sub	r3,r18,r3
    2730:	1023883a 	mov	r17,r2
    2734:	003f5206 	br	2480 <__alt_data_end+0xff002480>
    2738:	923f0436 	bltu	r18,r8,234c <__alt_data_end+0xff00234c>
    273c:	800897fa 	slli	r4,r16,31
    2740:	9004d07a 	srli	r2,r18,1
    2744:	8006d07a 	srli	r3,r16,1
    2748:	902097fa 	slli	r16,r18,31
    274c:	20a4b03a 	or	r18,r4,r2
    2750:	003f0106 	br	2358 <__alt_data_end+0xff002358>
    2754:	e4bff51e 	bne	fp,r18,272c <__alt_data_end+0xff00272c>
    2758:	85bff22e 	bgeu	r16,r22,2724 <__alt_data_end+0xff002724>
    275c:	e0c7c83a 	sub	r3,fp,r3
    2760:	1023883a 	mov	r17,r2
    2764:	003f4606 	br	2480 <__alt_data_end+0xff002480>
    2768:	100f883a 	mov	r7,r2
    276c:	003f2b06 	br	241c <__alt_data_end+0xff00241c>
    2770:	180d883a 	mov	r6,r3
    2774:	003f1306 	br	23c4 <__alt_data_end+0xff0023c4>
    2778:	813fe436 	bltu	r16,r4,270c <__alt_data_end+0xff00270c>
    277c:	0007883a 	mov	r3,zero
    2780:	003f3f06 	br	2480 <__alt_data_end+0xff002480>
    2784:	ba402c36 	bltu	r23,r9,2838 <__divdf3+0x810>
    2788:	4dc05426 	beq	r9,r23,28dc <__divdf3+0x8b4>
    278c:	1011883a 	mov	r8,r2
    2790:	003f8906 	br	25b8 <__alt_data_end+0xff0025b8>
    2794:	023fffc4 	movi	r8,-1
    2798:	003f8806 	br	25bc <__alt_data_end+0xff0025bc>
    279c:	1811883a 	mov	r8,r3
    27a0:	003f5406 	br	24f4 <__alt_data_end+0xff0024f4>
    27a4:	1025883a 	mov	r18,r2
    27a8:	003f6d06 	br	2560 <__alt_data_end+0xff002560>
    27ac:	b827883a 	mov	r19,r23
    27b0:	003f8206 	br	25bc <__alt_data_end+0xff0025bc>
    27b4:	010007c4 	movi	r4,31
    27b8:	20c02616 	blt	r4,r3,2854 <__divdf3+0x82c>
    27bc:	00800804 	movi	r2,32
    27c0:	10c5c83a 	sub	r2,r2,r3
    27c4:	888a983a 	sll	r5,r17,r2
    27c8:	40c8d83a 	srl	r4,r8,r3
    27cc:	4084983a 	sll	r2,r8,r2
    27d0:	88e2d83a 	srl	r17,r17,r3
    27d4:	2906b03a 	or	r3,r5,r4
    27d8:	1004c03a 	cmpne	r2,r2,zero
    27dc:	1886b03a 	or	r3,r3,r2
    27e0:	188001cc 	andi	r2,r3,7
    27e4:	10000726 	beq	r2,zero,2804 <__divdf3+0x7dc>
    27e8:	188003cc 	andi	r2,r3,15
    27ec:	01000104 	movi	r4,4
    27f0:	11000426 	beq	r2,r4,2804 <__divdf3+0x7dc>
    27f4:	1805883a 	mov	r2,r3
    27f8:	10c00104 	addi	r3,r2,4
    27fc:	1885803a 	cmpltu	r2,r3,r2
    2800:	88a3883a 	add	r17,r17,r2
    2804:	8880202c 	andhi	r2,r17,128
    2808:	10002726 	beq	r2,zero,28a8 <__divdf3+0x880>
    280c:	98c0004c 	andi	r3,r19,1
    2810:	00800044 	movi	r2,1
    2814:	000b883a 	mov	r5,zero
    2818:	0025883a 	mov	r18,zero
    281c:	003e6106 	br	21a4 <__alt_data_end+0xff0021a4>
    2820:	85a1883a 	add	r16,r16,r22
    2824:	8585803a 	cmpltu	r2,r16,r22
    2828:	1705883a 	add	r2,r2,fp
    282c:	14a5883a 	add	r18,r2,r18
    2830:	8c7fff84 	addi	r17,r17,-2
    2834:	003f1106 	br	247c <__alt_data_end+0xff00247c>
    2838:	b589883a 	add	r4,r22,r22
    283c:	25ad803a 	cmpltu	r22,r4,r22
    2840:	b739883a 	add	fp,r22,fp
    2844:	40bfff84 	addi	r2,r8,-2
    2848:	bf2f883a 	add	r23,r23,fp
    284c:	202d883a 	mov	r22,r4
    2850:	003f9306 	br	26a0 <__alt_data_end+0xff0026a0>
    2854:	013ff844 	movi	r4,-31
    2858:	2085c83a 	sub	r2,r4,r2
    285c:	8888d83a 	srl	r4,r17,r2
    2860:	00800804 	movi	r2,32
    2864:	18802126 	beq	r3,r2,28ec <__divdf3+0x8c4>
    2868:	00801004 	movi	r2,64
    286c:	10c5c83a 	sub	r2,r2,r3
    2870:	8884983a 	sll	r2,r17,r2
    2874:	1204b03a 	or	r2,r2,r8
    2878:	1004c03a 	cmpne	r2,r2,zero
    287c:	2084b03a 	or	r2,r4,r2
    2880:	144001cc 	andi	r17,r2,7
    2884:	88000d1e 	bne	r17,zero,28bc <__divdf3+0x894>
    2888:	000b883a 	mov	r5,zero
    288c:	1024d0fa 	srli	r18,r2,3
    2890:	98c0004c 	andi	r3,r19,1
    2894:	0005883a 	mov	r2,zero
    2898:	9464b03a 	or	r18,r18,r17
    289c:	003e4106 	br	21a4 <__alt_data_end+0xff0021a4>
    28a0:	1007883a 	mov	r3,r2
    28a4:	0023883a 	mov	r17,zero
    28a8:	880a927a 	slli	r5,r17,9
    28ac:	1805883a 	mov	r2,r3
    28b0:	8822977a 	slli	r17,r17,29
    28b4:	280ad33a 	srli	r5,r5,12
    28b8:	003ff406 	br	288c <__alt_data_end+0xff00288c>
    28bc:	10c003cc 	andi	r3,r2,15
    28c0:	01000104 	movi	r4,4
    28c4:	193ff626 	beq	r3,r4,28a0 <__alt_data_end+0xff0028a0>
    28c8:	0023883a 	mov	r17,zero
    28cc:	003fca06 	br	27f8 <__alt_data_end+0xff0027f8>
    28d0:	813fd336 	bltu	r16,r4,2820 <__alt_data_end+0xff002820>
    28d4:	1023883a 	mov	r17,r2
    28d8:	003fa806 	br	277c <__alt_data_end+0xff00277c>
    28dc:	b0ffd636 	bltu	r22,r3,2838 <__alt_data_end+0xff002838>
    28e0:	1011883a 	mov	r8,r2
    28e4:	b0ff341e 	bne	r22,r3,25b8 <__alt_data_end+0xff0025b8>
    28e8:	003f3406 	br	25bc <__alt_data_end+0xff0025bc>
    28ec:	0005883a 	mov	r2,zero
    28f0:	003fe006 	br	2874 <__alt_data_end+0xff002874>
    28f4:	00800434 	movhi	r2,16
    28f8:	89400234 	orhi	r5,r17,8
    28fc:	10bfffc4 	addi	r2,r2,-1
    2900:	b807883a 	mov	r3,r23
    2904:	288a703a 	and	r5,r5,r2
    2908:	4025883a 	mov	r18,r8
    290c:	003e8206 	br	2318 <__alt_data_end+0xff002318>

00002910 <__floatunsidf>:
    2910:	defffe04 	addi	sp,sp,-8
    2914:	dc000015 	stw	r16,0(sp)
    2918:	dfc00115 	stw	ra,4(sp)
    291c:	2021883a 	mov	r16,r4
    2920:	20002226 	beq	r4,zero,29ac <__floatunsidf+0x9c>
    2924:	00029b80 	call	29b8 <__clzsi2>
    2928:	01010784 	movi	r4,1054
    292c:	2089c83a 	sub	r4,r4,r2
    2930:	01810cc4 	movi	r6,1075
    2934:	310dc83a 	sub	r6,r6,r4
    2938:	00c007c4 	movi	r3,31
    293c:	1980120e 	bge	r3,r6,2988 <__floatunsidf+0x78>
    2940:	00c104c4 	movi	r3,1043
    2944:	1907c83a 	sub	r3,r3,r4
    2948:	80ca983a 	sll	r5,r16,r3
    294c:	00800434 	movhi	r2,16
    2950:	10bfffc4 	addi	r2,r2,-1
    2954:	2101ffcc 	andi	r4,r4,2047
    2958:	0021883a 	mov	r16,zero
    295c:	288a703a 	and	r5,r5,r2
    2960:	2008953a 	slli	r4,r4,20
    2964:	00c00434 	movhi	r3,16
    2968:	18ffffc4 	addi	r3,r3,-1
    296c:	28c6703a 	and	r3,r5,r3
    2970:	8005883a 	mov	r2,r16
    2974:	1906b03a 	or	r3,r3,r4
    2978:	dfc00117 	ldw	ra,4(sp)
    297c:	dc000017 	ldw	r16,0(sp)
    2980:	dec00204 	addi	sp,sp,8
    2984:	f800283a 	ret
    2988:	00c002c4 	movi	r3,11
    298c:	188bc83a 	sub	r5,r3,r2
    2990:	814ad83a 	srl	r5,r16,r5
    2994:	00c00434 	movhi	r3,16
    2998:	18ffffc4 	addi	r3,r3,-1
    299c:	81a0983a 	sll	r16,r16,r6
    29a0:	2101ffcc 	andi	r4,r4,2047
    29a4:	28ca703a 	and	r5,r5,r3
    29a8:	003fed06 	br	2960 <__alt_data_end+0xff002960>
    29ac:	0009883a 	mov	r4,zero
    29b0:	000b883a 	mov	r5,zero
    29b4:	003fea06 	br	2960 <__alt_data_end+0xff002960>

000029b8 <__clzsi2>:
    29b8:	00bfffd4 	movui	r2,65535
    29bc:	11000536 	bltu	r2,r4,29d4 <__clzsi2+0x1c>
    29c0:	00803fc4 	movi	r2,255
    29c4:	11000f36 	bltu	r2,r4,2a04 <__clzsi2+0x4c>
    29c8:	00800804 	movi	r2,32
    29cc:	0007883a 	mov	r3,zero
    29d0:	00000506 	br	29e8 <__clzsi2+0x30>
    29d4:	00804034 	movhi	r2,256
    29d8:	10bfffc4 	addi	r2,r2,-1
    29dc:	11000c2e 	bgeu	r2,r4,2a10 <__clzsi2+0x58>
    29e0:	00800204 	movi	r2,8
    29e4:	00c00604 	movi	r3,24
    29e8:	20c8d83a 	srl	r4,r4,r3
    29ec:	00c00074 	movhi	r3,1
    29f0:	18c65e04 	addi	r3,r3,6520
    29f4:	1909883a 	add	r4,r3,r4
    29f8:	20c00003 	ldbu	r3,0(r4)
    29fc:	10c5c83a 	sub	r2,r2,r3
    2a00:	f800283a 	ret
    2a04:	00800604 	movi	r2,24
    2a08:	00c00204 	movi	r3,8
    2a0c:	003ff606 	br	29e8 <__alt_data_end+0xff0029e8>
    2a10:	00800404 	movi	r2,16
    2a14:	1007883a 	mov	r3,r2
    2a18:	003ff306 	br	29e8 <__alt_data_end+0xff0029e8>

00002a1c <malloc>:
    2a1c:	00800074 	movhi	r2,1
    2a20:	108e0904 	addi	r2,r2,14372
    2a24:	200b883a 	mov	r5,r4
    2a28:	11000017 	ldw	r4,0(r2)
    2a2c:	0002a441 	jmpi	2a44 <_malloc_r>

00002a30 <free>:
    2a30:	00800074 	movhi	r2,1
    2a34:	108e0904 	addi	r2,r2,14372
    2a38:	200b883a 	mov	r5,r4
    2a3c:	11000017 	ldw	r4,0(r2)
    2a40:	00078941 	jmpi	7894 <_free_r>

00002a44 <_malloc_r>:
    2a44:	defff504 	addi	sp,sp,-44
    2a48:	dc800315 	stw	r18,12(sp)
    2a4c:	dfc00a15 	stw	ra,40(sp)
    2a50:	df000915 	stw	fp,36(sp)
    2a54:	ddc00815 	stw	r23,32(sp)
    2a58:	dd800715 	stw	r22,28(sp)
    2a5c:	dd400615 	stw	r21,24(sp)
    2a60:	dd000515 	stw	r20,20(sp)
    2a64:	dcc00415 	stw	r19,16(sp)
    2a68:	dc400215 	stw	r17,8(sp)
    2a6c:	dc000115 	stw	r16,4(sp)
    2a70:	288002c4 	addi	r2,r5,11
    2a74:	00c00584 	movi	r3,22
    2a78:	2025883a 	mov	r18,r4
    2a7c:	18807f2e 	bgeu	r3,r2,2c7c <_malloc_r+0x238>
    2a80:	047ffe04 	movi	r17,-8
    2a84:	1462703a 	and	r17,r2,r17
    2a88:	8800a316 	blt	r17,zero,2d18 <_malloc_r+0x2d4>
    2a8c:	8940a236 	bltu	r17,r5,2d18 <_malloc_r+0x2d4>
    2a90:	000ed380 	call	ed38 <__malloc_lock>
    2a94:	00807dc4 	movi	r2,503
    2a98:	1441e92e 	bgeu	r2,r17,3240 <_malloc_r+0x7fc>
    2a9c:	8804d27a 	srli	r2,r17,9
    2aa0:	1000a126 	beq	r2,zero,2d28 <_malloc_r+0x2e4>
    2aa4:	00c00104 	movi	r3,4
    2aa8:	18811e36 	bltu	r3,r2,2f24 <_malloc_r+0x4e0>
    2aac:	8804d1ba 	srli	r2,r17,6
    2ab0:	12000e44 	addi	r8,r2,57
    2ab4:	11c00e04 	addi	r7,r2,56
    2ab8:	4209883a 	add	r4,r8,r8
    2abc:	04c00074 	movhi	r19,1
    2ac0:	2109883a 	add	r4,r4,r4
    2ac4:	9cc75b04 	addi	r19,r19,7532
    2ac8:	2109883a 	add	r4,r4,r4
    2acc:	9909883a 	add	r4,r19,r4
    2ad0:	24000117 	ldw	r16,4(r4)
    2ad4:	213ffe04 	addi	r4,r4,-8
    2ad8:	24009726 	beq	r4,r16,2d38 <_malloc_r+0x2f4>
    2adc:	80800117 	ldw	r2,4(r16)
    2ae0:	01bfff04 	movi	r6,-4
    2ae4:	014003c4 	movi	r5,15
    2ae8:	1184703a 	and	r2,r2,r6
    2aec:	1447c83a 	sub	r3,r2,r17
    2af0:	28c00716 	blt	r5,r3,2b10 <_malloc_r+0xcc>
    2af4:	1800920e 	bge	r3,zero,2d40 <_malloc_r+0x2fc>
    2af8:	84000317 	ldw	r16,12(r16)
    2afc:	24008e26 	beq	r4,r16,2d38 <_malloc_r+0x2f4>
    2b00:	80800117 	ldw	r2,4(r16)
    2b04:	1184703a 	and	r2,r2,r6
    2b08:	1447c83a 	sub	r3,r2,r17
    2b0c:	28fff90e 	bge	r5,r3,2af4 <__alt_data_end+0xff002af4>
    2b10:	3809883a 	mov	r4,r7
    2b14:	01800074 	movhi	r6,1
    2b18:	9c000417 	ldw	r16,16(r19)
    2b1c:	31875b04 	addi	r6,r6,7532
    2b20:	32000204 	addi	r8,r6,8
    2b24:	82013426 	beq	r16,r8,2ff8 <_malloc_r+0x5b4>
    2b28:	80c00117 	ldw	r3,4(r16)
    2b2c:	00bfff04 	movi	r2,-4
    2b30:	188e703a 	and	r7,r3,r2
    2b34:	3c45c83a 	sub	r2,r7,r17
    2b38:	00c003c4 	movi	r3,15
    2b3c:	18811f16 	blt	r3,r2,2fbc <_malloc_r+0x578>
    2b40:	32000515 	stw	r8,20(r6)
    2b44:	32000415 	stw	r8,16(r6)
    2b48:	10007f0e 	bge	r2,zero,2d48 <_malloc_r+0x304>
    2b4c:	00807fc4 	movi	r2,511
    2b50:	11c0fd36 	bltu	r2,r7,2f48 <_malloc_r+0x504>
    2b54:	3806d0fa 	srli	r3,r7,3
    2b58:	01c00044 	movi	r7,1
    2b5c:	30800117 	ldw	r2,4(r6)
    2b60:	19400044 	addi	r5,r3,1
    2b64:	294b883a 	add	r5,r5,r5
    2b68:	1807d0ba 	srai	r3,r3,2
    2b6c:	294b883a 	add	r5,r5,r5
    2b70:	294b883a 	add	r5,r5,r5
    2b74:	298b883a 	add	r5,r5,r6
    2b78:	38c6983a 	sll	r3,r7,r3
    2b7c:	29c00017 	ldw	r7,0(r5)
    2b80:	2a7ffe04 	addi	r9,r5,-8
    2b84:	1886b03a 	or	r3,r3,r2
    2b88:	82400315 	stw	r9,12(r16)
    2b8c:	81c00215 	stw	r7,8(r16)
    2b90:	30c00115 	stw	r3,4(r6)
    2b94:	2c000015 	stw	r16,0(r5)
    2b98:	3c000315 	stw	r16,12(r7)
    2b9c:	2005d0ba 	srai	r2,r4,2
    2ba0:	01400044 	movi	r5,1
    2ba4:	288a983a 	sll	r5,r5,r2
    2ba8:	19406f36 	bltu	r3,r5,2d68 <_malloc_r+0x324>
    2bac:	28c4703a 	and	r2,r5,r3
    2bb0:	10000a1e 	bne	r2,zero,2bdc <_malloc_r+0x198>
    2bb4:	00bfff04 	movi	r2,-4
    2bb8:	294b883a 	add	r5,r5,r5
    2bbc:	2088703a 	and	r4,r4,r2
    2bc0:	28c4703a 	and	r2,r5,r3
    2bc4:	21000104 	addi	r4,r4,4
    2bc8:	1000041e 	bne	r2,zero,2bdc <_malloc_r+0x198>
    2bcc:	294b883a 	add	r5,r5,r5
    2bd0:	28c4703a 	and	r2,r5,r3
    2bd4:	21000104 	addi	r4,r4,4
    2bd8:	103ffc26 	beq	r2,zero,2bcc <__alt_data_end+0xff002bcc>
    2bdc:	02bfff04 	movi	r10,-4
    2be0:	024003c4 	movi	r9,15
    2be4:	21800044 	addi	r6,r4,1
    2be8:	318d883a 	add	r6,r6,r6
    2bec:	318d883a 	add	r6,r6,r6
    2bf0:	318d883a 	add	r6,r6,r6
    2bf4:	998d883a 	add	r6,r19,r6
    2bf8:	333ffe04 	addi	r12,r6,-8
    2bfc:	2017883a 	mov	r11,r4
    2c00:	31800104 	addi	r6,r6,4
    2c04:	34000017 	ldw	r16,0(r6)
    2c08:	31fffd04 	addi	r7,r6,-12
    2c0c:	81c0041e 	bne	r16,r7,2c20 <_malloc_r+0x1dc>
    2c10:	0000fb06 	br	3000 <_malloc_r+0x5bc>
    2c14:	1801030e 	bge	r3,zero,3024 <_malloc_r+0x5e0>
    2c18:	84000317 	ldw	r16,12(r16)
    2c1c:	81c0f826 	beq	r16,r7,3000 <_malloc_r+0x5bc>
    2c20:	80800117 	ldw	r2,4(r16)
    2c24:	1284703a 	and	r2,r2,r10
    2c28:	1447c83a 	sub	r3,r2,r17
    2c2c:	48fff90e 	bge	r9,r3,2c14 <__alt_data_end+0xff002c14>
    2c30:	80800317 	ldw	r2,12(r16)
    2c34:	81000217 	ldw	r4,8(r16)
    2c38:	89400054 	ori	r5,r17,1
    2c3c:	81400115 	stw	r5,4(r16)
    2c40:	20800315 	stw	r2,12(r4)
    2c44:	11000215 	stw	r4,8(r2)
    2c48:	8463883a 	add	r17,r16,r17
    2c4c:	9c400515 	stw	r17,20(r19)
    2c50:	9c400415 	stw	r17,16(r19)
    2c54:	18800054 	ori	r2,r3,1
    2c58:	88800115 	stw	r2,4(r17)
    2c5c:	8a000315 	stw	r8,12(r17)
    2c60:	8a000215 	stw	r8,8(r17)
    2c64:	88e3883a 	add	r17,r17,r3
    2c68:	88c00015 	stw	r3,0(r17)
    2c6c:	9009883a 	mov	r4,r18
    2c70:	000ed5c0 	call	ed5c <__malloc_unlock>
    2c74:	80800204 	addi	r2,r16,8
    2c78:	00001b06 	br	2ce8 <_malloc_r+0x2a4>
    2c7c:	04400404 	movi	r17,16
    2c80:	89402536 	bltu	r17,r5,2d18 <_malloc_r+0x2d4>
    2c84:	000ed380 	call	ed38 <__malloc_lock>
    2c88:	00800184 	movi	r2,6
    2c8c:	01000084 	movi	r4,2
    2c90:	04c00074 	movhi	r19,1
    2c94:	1085883a 	add	r2,r2,r2
    2c98:	9cc75b04 	addi	r19,r19,7532
    2c9c:	1085883a 	add	r2,r2,r2
    2ca0:	9885883a 	add	r2,r19,r2
    2ca4:	14000117 	ldw	r16,4(r2)
    2ca8:	10fffe04 	addi	r3,r2,-8
    2cac:	80c0d926 	beq	r16,r3,3014 <_malloc_r+0x5d0>
    2cb0:	80c00117 	ldw	r3,4(r16)
    2cb4:	81000317 	ldw	r4,12(r16)
    2cb8:	00bfff04 	movi	r2,-4
    2cbc:	1884703a 	and	r2,r3,r2
    2cc0:	81400217 	ldw	r5,8(r16)
    2cc4:	8085883a 	add	r2,r16,r2
    2cc8:	10c00117 	ldw	r3,4(r2)
    2ccc:	29000315 	stw	r4,12(r5)
    2cd0:	21400215 	stw	r5,8(r4)
    2cd4:	18c00054 	ori	r3,r3,1
    2cd8:	10c00115 	stw	r3,4(r2)
    2cdc:	9009883a 	mov	r4,r18
    2ce0:	000ed5c0 	call	ed5c <__malloc_unlock>
    2ce4:	80800204 	addi	r2,r16,8
    2ce8:	dfc00a17 	ldw	ra,40(sp)
    2cec:	df000917 	ldw	fp,36(sp)
    2cf0:	ddc00817 	ldw	r23,32(sp)
    2cf4:	dd800717 	ldw	r22,28(sp)
    2cf8:	dd400617 	ldw	r21,24(sp)
    2cfc:	dd000517 	ldw	r20,20(sp)
    2d00:	dcc00417 	ldw	r19,16(sp)
    2d04:	dc800317 	ldw	r18,12(sp)
    2d08:	dc400217 	ldw	r17,8(sp)
    2d0c:	dc000117 	ldw	r16,4(sp)
    2d10:	dec00b04 	addi	sp,sp,44
    2d14:	f800283a 	ret
    2d18:	00800304 	movi	r2,12
    2d1c:	90800015 	stw	r2,0(r18)
    2d20:	0005883a 	mov	r2,zero
    2d24:	003ff006 	br	2ce8 <__alt_data_end+0xff002ce8>
    2d28:	01002004 	movi	r4,128
    2d2c:	02001004 	movi	r8,64
    2d30:	01c00fc4 	movi	r7,63
    2d34:	003f6106 	br	2abc <__alt_data_end+0xff002abc>
    2d38:	4009883a 	mov	r4,r8
    2d3c:	003f7506 	br	2b14 <__alt_data_end+0xff002b14>
    2d40:	81000317 	ldw	r4,12(r16)
    2d44:	003fde06 	br	2cc0 <__alt_data_end+0xff002cc0>
    2d48:	81c5883a 	add	r2,r16,r7
    2d4c:	11400117 	ldw	r5,4(r2)
    2d50:	9009883a 	mov	r4,r18
    2d54:	29400054 	ori	r5,r5,1
    2d58:	11400115 	stw	r5,4(r2)
    2d5c:	000ed5c0 	call	ed5c <__malloc_unlock>
    2d60:	80800204 	addi	r2,r16,8
    2d64:	003fe006 	br	2ce8 <__alt_data_end+0xff002ce8>
    2d68:	9c000217 	ldw	r16,8(r19)
    2d6c:	00bfff04 	movi	r2,-4
    2d70:	85800117 	ldw	r22,4(r16)
    2d74:	b0ac703a 	and	r22,r22,r2
    2d78:	b4400336 	bltu	r22,r17,2d88 <_malloc_r+0x344>
    2d7c:	b445c83a 	sub	r2,r22,r17
    2d80:	00c003c4 	movi	r3,15
    2d84:	18805d16 	blt	r3,r2,2efc <_malloc_r+0x4b8>
    2d88:	05c00074 	movhi	r23,1
    2d8c:	00800074 	movhi	r2,1
    2d90:	10952504 	addi	r2,r2,21652
    2d94:	bdce0604 	addi	r23,r23,14360
    2d98:	15400017 	ldw	r21,0(r2)
    2d9c:	b8c00017 	ldw	r3,0(r23)
    2da0:	00bfffc4 	movi	r2,-1
    2da4:	858d883a 	add	r6,r16,r22
    2da8:	8d6b883a 	add	r21,r17,r21
    2dac:	1880ea26 	beq	r3,r2,3158 <_malloc_r+0x714>
    2db0:	ad4403c4 	addi	r21,r21,4111
    2db4:	00bc0004 	movi	r2,-4096
    2db8:	a8aa703a 	and	r21,r21,r2
    2dbc:	a80b883a 	mov	r5,r21
    2dc0:	9009883a 	mov	r4,r18
    2dc4:	d9800015 	stw	r6,0(sp)
    2dc8:	00033900 	call	3390 <_sbrk_r>
    2dcc:	1029883a 	mov	r20,r2
    2dd0:	00bfffc4 	movi	r2,-1
    2dd4:	d9800017 	ldw	r6,0(sp)
    2dd8:	a080e826 	beq	r20,r2,317c <_malloc_r+0x738>
    2ddc:	a180a636 	bltu	r20,r6,3078 <_malloc_r+0x634>
    2de0:	07000074 	movhi	fp,1
    2de4:	e7153304 	addi	fp,fp,21708
    2de8:	e0800017 	ldw	r2,0(fp)
    2dec:	a887883a 	add	r3,r21,r2
    2df0:	e0c00015 	stw	r3,0(fp)
    2df4:	3500e626 	beq	r6,r20,3190 <_malloc_r+0x74c>
    2df8:	b9000017 	ldw	r4,0(r23)
    2dfc:	00bfffc4 	movi	r2,-1
    2e00:	2080ee26 	beq	r4,r2,31bc <_malloc_r+0x778>
    2e04:	a185c83a 	sub	r2,r20,r6
    2e08:	10c5883a 	add	r2,r2,r3
    2e0c:	e0800015 	stw	r2,0(fp)
    2e10:	a0c001cc 	andi	r3,r20,7
    2e14:	1800bc26 	beq	r3,zero,3108 <_malloc_r+0x6c4>
    2e18:	a0e9c83a 	sub	r20,r20,r3
    2e1c:	00840204 	movi	r2,4104
    2e20:	a5000204 	addi	r20,r20,8
    2e24:	10c7c83a 	sub	r3,r2,r3
    2e28:	a545883a 	add	r2,r20,r21
    2e2c:	1083ffcc 	andi	r2,r2,4095
    2e30:	18abc83a 	sub	r21,r3,r2
    2e34:	a80b883a 	mov	r5,r21
    2e38:	9009883a 	mov	r4,r18
    2e3c:	00033900 	call	3390 <_sbrk_r>
    2e40:	00ffffc4 	movi	r3,-1
    2e44:	10c0e126 	beq	r2,r3,31cc <_malloc_r+0x788>
    2e48:	1505c83a 	sub	r2,r2,r20
    2e4c:	1545883a 	add	r2,r2,r21
    2e50:	10800054 	ori	r2,r2,1
    2e54:	e0c00017 	ldw	r3,0(fp)
    2e58:	9d000215 	stw	r20,8(r19)
    2e5c:	a0800115 	stw	r2,4(r20)
    2e60:	a8c7883a 	add	r3,r21,r3
    2e64:	e0c00015 	stw	r3,0(fp)
    2e68:	84c00e26 	beq	r16,r19,2ea4 <_malloc_r+0x460>
    2e6c:	018003c4 	movi	r6,15
    2e70:	3580a72e 	bgeu	r6,r22,3110 <_malloc_r+0x6cc>
    2e74:	81400117 	ldw	r5,4(r16)
    2e78:	013ffe04 	movi	r4,-8
    2e7c:	b0bffd04 	addi	r2,r22,-12
    2e80:	1104703a 	and	r2,r2,r4
    2e84:	2900004c 	andi	r4,r5,1
    2e88:	2088b03a 	or	r4,r4,r2
    2e8c:	81000115 	stw	r4,4(r16)
    2e90:	01400144 	movi	r5,5
    2e94:	8089883a 	add	r4,r16,r2
    2e98:	21400115 	stw	r5,4(r4)
    2e9c:	21400215 	stw	r5,8(r4)
    2ea0:	3080cd36 	bltu	r6,r2,31d8 <_malloc_r+0x794>
    2ea4:	00800074 	movhi	r2,1
    2ea8:	10952404 	addi	r2,r2,21648
    2eac:	11000017 	ldw	r4,0(r2)
    2eb0:	20c0012e 	bgeu	r4,r3,2eb8 <_malloc_r+0x474>
    2eb4:	10c00015 	stw	r3,0(r2)
    2eb8:	00800074 	movhi	r2,1
    2ebc:	10952304 	addi	r2,r2,21644
    2ec0:	11000017 	ldw	r4,0(r2)
    2ec4:	9c000217 	ldw	r16,8(r19)
    2ec8:	20c0012e 	bgeu	r4,r3,2ed0 <_malloc_r+0x48c>
    2ecc:	10c00015 	stw	r3,0(r2)
    2ed0:	80c00117 	ldw	r3,4(r16)
    2ed4:	00bfff04 	movi	r2,-4
    2ed8:	1886703a 	and	r3,r3,r2
    2edc:	1c45c83a 	sub	r2,r3,r17
    2ee0:	1c400236 	bltu	r3,r17,2eec <_malloc_r+0x4a8>
    2ee4:	00c003c4 	movi	r3,15
    2ee8:	18800416 	blt	r3,r2,2efc <_malloc_r+0x4b8>
    2eec:	9009883a 	mov	r4,r18
    2ef0:	000ed5c0 	call	ed5c <__malloc_unlock>
    2ef4:	0005883a 	mov	r2,zero
    2ef8:	003f7b06 	br	2ce8 <__alt_data_end+0xff002ce8>
    2efc:	88c00054 	ori	r3,r17,1
    2f00:	80c00115 	stw	r3,4(r16)
    2f04:	8463883a 	add	r17,r16,r17
    2f08:	10800054 	ori	r2,r2,1
    2f0c:	9c400215 	stw	r17,8(r19)
    2f10:	88800115 	stw	r2,4(r17)
    2f14:	9009883a 	mov	r4,r18
    2f18:	000ed5c0 	call	ed5c <__malloc_unlock>
    2f1c:	80800204 	addi	r2,r16,8
    2f20:	003f7106 	br	2ce8 <__alt_data_end+0xff002ce8>
    2f24:	00c00504 	movi	r3,20
    2f28:	18804a2e 	bgeu	r3,r2,3054 <_malloc_r+0x610>
    2f2c:	00c01504 	movi	r3,84
    2f30:	18806e36 	bltu	r3,r2,30ec <_malloc_r+0x6a8>
    2f34:	8804d33a 	srli	r2,r17,12
    2f38:	12001bc4 	addi	r8,r2,111
    2f3c:	11c01b84 	addi	r7,r2,110
    2f40:	4209883a 	add	r4,r8,r8
    2f44:	003edd06 	br	2abc <__alt_data_end+0xff002abc>
    2f48:	3804d27a 	srli	r2,r7,9
    2f4c:	00c00104 	movi	r3,4
    2f50:	1880442e 	bgeu	r3,r2,3064 <_malloc_r+0x620>
    2f54:	00c00504 	movi	r3,20
    2f58:	18808136 	bltu	r3,r2,3160 <_malloc_r+0x71c>
    2f5c:	11401704 	addi	r5,r2,92
    2f60:	10c016c4 	addi	r3,r2,91
    2f64:	294b883a 	add	r5,r5,r5
    2f68:	294b883a 	add	r5,r5,r5
    2f6c:	294b883a 	add	r5,r5,r5
    2f70:	994b883a 	add	r5,r19,r5
    2f74:	28800017 	ldw	r2,0(r5)
    2f78:	01800074 	movhi	r6,1
    2f7c:	297ffe04 	addi	r5,r5,-8
    2f80:	31875b04 	addi	r6,r6,7532
    2f84:	28806526 	beq	r5,r2,311c <_malloc_r+0x6d8>
    2f88:	01bfff04 	movi	r6,-4
    2f8c:	10c00117 	ldw	r3,4(r2)
    2f90:	1986703a 	and	r3,r3,r6
    2f94:	38c0022e 	bgeu	r7,r3,2fa0 <_malloc_r+0x55c>
    2f98:	10800217 	ldw	r2,8(r2)
    2f9c:	28bffb1e 	bne	r5,r2,2f8c <__alt_data_end+0xff002f8c>
    2fa0:	11400317 	ldw	r5,12(r2)
    2fa4:	98c00117 	ldw	r3,4(r19)
    2fa8:	81400315 	stw	r5,12(r16)
    2fac:	80800215 	stw	r2,8(r16)
    2fb0:	2c000215 	stw	r16,8(r5)
    2fb4:	14000315 	stw	r16,12(r2)
    2fb8:	003ef806 	br	2b9c <__alt_data_end+0xff002b9c>
    2fbc:	88c00054 	ori	r3,r17,1
    2fc0:	80c00115 	stw	r3,4(r16)
    2fc4:	8463883a 	add	r17,r16,r17
    2fc8:	34400515 	stw	r17,20(r6)
    2fcc:	34400415 	stw	r17,16(r6)
    2fd0:	10c00054 	ori	r3,r2,1
    2fd4:	8a000315 	stw	r8,12(r17)
    2fd8:	8a000215 	stw	r8,8(r17)
    2fdc:	88c00115 	stw	r3,4(r17)
    2fe0:	88a3883a 	add	r17,r17,r2
    2fe4:	88800015 	stw	r2,0(r17)
    2fe8:	9009883a 	mov	r4,r18
    2fec:	000ed5c0 	call	ed5c <__malloc_unlock>
    2ff0:	80800204 	addi	r2,r16,8
    2ff4:	003f3c06 	br	2ce8 <__alt_data_end+0xff002ce8>
    2ff8:	30c00117 	ldw	r3,4(r6)
    2ffc:	003ee706 	br	2b9c <__alt_data_end+0xff002b9c>
    3000:	5ac00044 	addi	r11,r11,1
    3004:	588000cc 	andi	r2,r11,3
    3008:	31800204 	addi	r6,r6,8
    300c:	103efd1e 	bne	r2,zero,2c04 <__alt_data_end+0xff002c04>
    3010:	00002406 	br	30a4 <_malloc_r+0x660>
    3014:	14000317 	ldw	r16,12(r2)
    3018:	143f251e 	bne	r2,r16,2cb0 <__alt_data_end+0xff002cb0>
    301c:	21000084 	addi	r4,r4,2
    3020:	003ebc06 	br	2b14 <__alt_data_end+0xff002b14>
    3024:	8085883a 	add	r2,r16,r2
    3028:	10c00117 	ldw	r3,4(r2)
    302c:	81000317 	ldw	r4,12(r16)
    3030:	81400217 	ldw	r5,8(r16)
    3034:	18c00054 	ori	r3,r3,1
    3038:	10c00115 	stw	r3,4(r2)
    303c:	29000315 	stw	r4,12(r5)
    3040:	21400215 	stw	r5,8(r4)
    3044:	9009883a 	mov	r4,r18
    3048:	000ed5c0 	call	ed5c <__malloc_unlock>
    304c:	80800204 	addi	r2,r16,8
    3050:	003f2506 	br	2ce8 <__alt_data_end+0xff002ce8>
    3054:	12001704 	addi	r8,r2,92
    3058:	11c016c4 	addi	r7,r2,91
    305c:	4209883a 	add	r4,r8,r8
    3060:	003e9606 	br	2abc <__alt_data_end+0xff002abc>
    3064:	3804d1ba 	srli	r2,r7,6
    3068:	11400e44 	addi	r5,r2,57
    306c:	10c00e04 	addi	r3,r2,56
    3070:	294b883a 	add	r5,r5,r5
    3074:	003fbc06 	br	2f68 <__alt_data_end+0xff002f68>
    3078:	84ff5926 	beq	r16,r19,2de0 <__alt_data_end+0xff002de0>
    307c:	00800074 	movhi	r2,1
    3080:	10875b04 	addi	r2,r2,7532
    3084:	14000217 	ldw	r16,8(r2)
    3088:	00bfff04 	movi	r2,-4
    308c:	80c00117 	ldw	r3,4(r16)
    3090:	1886703a 	and	r3,r3,r2
    3094:	003f9106 	br	2edc <__alt_data_end+0xff002edc>
    3098:	60800217 	ldw	r2,8(r12)
    309c:	213fffc4 	addi	r4,r4,-1
    30a0:	1300651e 	bne	r2,r12,3238 <_malloc_r+0x7f4>
    30a4:	208000cc 	andi	r2,r4,3
    30a8:	633ffe04 	addi	r12,r12,-8
    30ac:	103ffa1e 	bne	r2,zero,3098 <__alt_data_end+0xff003098>
    30b0:	98800117 	ldw	r2,4(r19)
    30b4:	0146303a 	nor	r3,zero,r5
    30b8:	1884703a 	and	r2,r3,r2
    30bc:	98800115 	stw	r2,4(r19)
    30c0:	294b883a 	add	r5,r5,r5
    30c4:	117f2836 	bltu	r2,r5,2d68 <__alt_data_end+0xff002d68>
    30c8:	283f2726 	beq	r5,zero,2d68 <__alt_data_end+0xff002d68>
    30cc:	2886703a 	and	r3,r5,r2
    30d0:	5809883a 	mov	r4,r11
    30d4:	183ec31e 	bne	r3,zero,2be4 <__alt_data_end+0xff002be4>
    30d8:	294b883a 	add	r5,r5,r5
    30dc:	2886703a 	and	r3,r5,r2
    30e0:	21000104 	addi	r4,r4,4
    30e4:	183ffc26 	beq	r3,zero,30d8 <__alt_data_end+0xff0030d8>
    30e8:	003ebe06 	br	2be4 <__alt_data_end+0xff002be4>
    30ec:	00c05504 	movi	r3,340
    30f0:	18801236 	bltu	r3,r2,313c <_malloc_r+0x6f8>
    30f4:	8804d3fa 	srli	r2,r17,15
    30f8:	12001e04 	addi	r8,r2,120
    30fc:	11c01dc4 	addi	r7,r2,119
    3100:	4209883a 	add	r4,r8,r8
    3104:	003e6d06 	br	2abc <__alt_data_end+0xff002abc>
    3108:	00c40004 	movi	r3,4096
    310c:	003f4606 	br	2e28 <__alt_data_end+0xff002e28>
    3110:	00800044 	movi	r2,1
    3114:	a0800115 	stw	r2,4(r20)
    3118:	003f7406 	br	2eec <__alt_data_end+0xff002eec>
    311c:	1805d0ba 	srai	r2,r3,2
    3120:	01c00044 	movi	r7,1
    3124:	30c00117 	ldw	r3,4(r6)
    3128:	388e983a 	sll	r7,r7,r2
    312c:	2805883a 	mov	r2,r5
    3130:	38c6b03a 	or	r3,r7,r3
    3134:	30c00115 	stw	r3,4(r6)
    3138:	003f9b06 	br	2fa8 <__alt_data_end+0xff002fa8>
    313c:	00c15504 	movi	r3,1364
    3140:	18801a36 	bltu	r3,r2,31ac <_malloc_r+0x768>
    3144:	8804d4ba 	srli	r2,r17,18
    3148:	12001f44 	addi	r8,r2,125
    314c:	11c01f04 	addi	r7,r2,124
    3150:	4209883a 	add	r4,r8,r8
    3154:	003e5906 	br	2abc <__alt_data_end+0xff002abc>
    3158:	ad400404 	addi	r21,r21,16
    315c:	003f1706 	br	2dbc <__alt_data_end+0xff002dbc>
    3160:	00c01504 	movi	r3,84
    3164:	18802336 	bltu	r3,r2,31f4 <_malloc_r+0x7b0>
    3168:	3804d33a 	srli	r2,r7,12
    316c:	11401bc4 	addi	r5,r2,111
    3170:	10c01b84 	addi	r3,r2,110
    3174:	294b883a 	add	r5,r5,r5
    3178:	003f7b06 	br	2f68 <__alt_data_end+0xff002f68>
    317c:	9c000217 	ldw	r16,8(r19)
    3180:	00bfff04 	movi	r2,-4
    3184:	80c00117 	ldw	r3,4(r16)
    3188:	1886703a 	and	r3,r3,r2
    318c:	003f5306 	br	2edc <__alt_data_end+0xff002edc>
    3190:	3083ffcc 	andi	r2,r6,4095
    3194:	103f181e 	bne	r2,zero,2df8 <__alt_data_end+0xff002df8>
    3198:	99000217 	ldw	r4,8(r19)
    319c:	b545883a 	add	r2,r22,r21
    31a0:	10800054 	ori	r2,r2,1
    31a4:	20800115 	stw	r2,4(r4)
    31a8:	003f3e06 	br	2ea4 <__alt_data_end+0xff002ea4>
    31ac:	01003f84 	movi	r4,254
    31b0:	02001fc4 	movi	r8,127
    31b4:	01c01f84 	movi	r7,126
    31b8:	003e4006 	br	2abc <__alt_data_end+0xff002abc>
    31bc:	00800074 	movhi	r2,1
    31c0:	108e0604 	addi	r2,r2,14360
    31c4:	15000015 	stw	r20,0(r2)
    31c8:	003f1106 	br	2e10 <__alt_data_end+0xff002e10>
    31cc:	00800044 	movi	r2,1
    31d0:	002b883a 	mov	r21,zero
    31d4:	003f1f06 	br	2e54 <__alt_data_end+0xff002e54>
    31d8:	81400204 	addi	r5,r16,8
    31dc:	9009883a 	mov	r4,r18
    31e0:	00078940 	call	7894 <_free_r>
    31e4:	00800074 	movhi	r2,1
    31e8:	10953304 	addi	r2,r2,21708
    31ec:	10c00017 	ldw	r3,0(r2)
    31f0:	003f2c06 	br	2ea4 <__alt_data_end+0xff002ea4>
    31f4:	00c05504 	movi	r3,340
    31f8:	18800536 	bltu	r3,r2,3210 <_malloc_r+0x7cc>
    31fc:	3804d3fa 	srli	r2,r7,15
    3200:	11401e04 	addi	r5,r2,120
    3204:	10c01dc4 	addi	r3,r2,119
    3208:	294b883a 	add	r5,r5,r5
    320c:	003f5606 	br	2f68 <__alt_data_end+0xff002f68>
    3210:	00c15504 	movi	r3,1364
    3214:	18800536 	bltu	r3,r2,322c <_malloc_r+0x7e8>
    3218:	3804d4ba 	srli	r2,r7,18
    321c:	11401f44 	addi	r5,r2,125
    3220:	10c01f04 	addi	r3,r2,124
    3224:	294b883a 	add	r5,r5,r5
    3228:	003f4f06 	br	2f68 <__alt_data_end+0xff002f68>
    322c:	01403f84 	movi	r5,254
    3230:	00c01f84 	movi	r3,126
    3234:	003f4c06 	br	2f68 <__alt_data_end+0xff002f68>
    3238:	98800117 	ldw	r2,4(r19)
    323c:	003fa006 	br	30c0 <__alt_data_end+0xff0030c0>
    3240:	8808d0fa 	srli	r4,r17,3
    3244:	20800044 	addi	r2,r4,1
    3248:	1085883a 	add	r2,r2,r2
    324c:	003e9006 	br	2c90 <__alt_data_end+0xff002c90>

00003250 <_printf_r>:
    3250:	defffd04 	addi	sp,sp,-12
    3254:	2805883a 	mov	r2,r5
    3258:	dfc00015 	stw	ra,0(sp)
    325c:	d9800115 	stw	r6,4(sp)
    3260:	d9c00215 	stw	r7,8(sp)
    3264:	21400217 	ldw	r5,8(r4)
    3268:	d9c00104 	addi	r7,sp,4
    326c:	100d883a 	mov	r6,r2
    3270:	000347c0 	call	347c <___vfprintf_internal_r>
    3274:	dfc00017 	ldw	ra,0(sp)
    3278:	dec00304 	addi	sp,sp,12
    327c:	f800283a 	ret

00003280 <printf>:
    3280:	defffc04 	addi	sp,sp,-16
    3284:	dfc00015 	stw	ra,0(sp)
    3288:	d9400115 	stw	r5,4(sp)
    328c:	d9800215 	stw	r6,8(sp)
    3290:	d9c00315 	stw	r7,12(sp)
    3294:	00800074 	movhi	r2,1
    3298:	108e0904 	addi	r2,r2,14372
    329c:	10800017 	ldw	r2,0(r2)
    32a0:	200b883a 	mov	r5,r4
    32a4:	d9800104 	addi	r6,sp,4
    32a8:	11000217 	ldw	r4,8(r2)
    32ac:	00056740 	call	5674 <__vfprintf_internal>
    32b0:	dfc00017 	ldw	ra,0(sp)
    32b4:	dec00404 	addi	sp,sp,16
    32b8:	f800283a 	ret

000032bc <_puts_r>:
    32bc:	defff604 	addi	sp,sp,-40
    32c0:	dc000715 	stw	r16,28(sp)
    32c4:	2021883a 	mov	r16,r4
    32c8:	2809883a 	mov	r4,r5
    32cc:	dc400815 	stw	r17,32(sp)
    32d0:	dfc00915 	stw	ra,36(sp)
    32d4:	2823883a 	mov	r17,r5
    32d8:	00033e40 	call	33e4 <strlen>
    32dc:	10c00044 	addi	r3,r2,1
    32e0:	d8800115 	stw	r2,4(sp)
    32e4:	00800074 	movhi	r2,1
    32e8:	10865104 	addi	r2,r2,6468
    32ec:	d8800215 	stw	r2,8(sp)
    32f0:	00800044 	movi	r2,1
    32f4:	d8800315 	stw	r2,12(sp)
    32f8:	00800084 	movi	r2,2
    32fc:	dc400015 	stw	r17,0(sp)
    3300:	d8c00615 	stw	r3,24(sp)
    3304:	dec00415 	stw	sp,16(sp)
    3308:	d8800515 	stw	r2,20(sp)
    330c:	80000226 	beq	r16,zero,3318 <_puts_r+0x5c>
    3310:	80800e17 	ldw	r2,56(r16)
    3314:	10001426 	beq	r2,zero,3368 <_puts_r+0xac>
    3318:	81400217 	ldw	r5,8(r16)
    331c:	2880030b 	ldhu	r2,12(r5)
    3320:	10c8000c 	andi	r3,r2,8192
    3324:	1800061e 	bne	r3,zero,3340 <_puts_r+0x84>
    3328:	29001917 	ldw	r4,100(r5)
    332c:	00f7ffc4 	movi	r3,-8193
    3330:	10880014 	ori	r2,r2,8192
    3334:	20c6703a 	and	r3,r4,r3
    3338:	2880030d 	sth	r2,12(r5)
    333c:	28c01915 	stw	r3,100(r5)
    3340:	d9800404 	addi	r6,sp,16
    3344:	8009883a 	mov	r4,r16
    3348:	0007ba40 	call	7ba4 <__sfvwrite_r>
    334c:	1000091e 	bne	r2,zero,3374 <_puts_r+0xb8>
    3350:	00800284 	movi	r2,10
    3354:	dfc00917 	ldw	ra,36(sp)
    3358:	dc400817 	ldw	r17,32(sp)
    335c:	dc000717 	ldw	r16,28(sp)
    3360:	dec00a04 	addi	sp,sp,40
    3364:	f800283a 	ret
    3368:	8009883a 	mov	r4,r16
    336c:	00077200 	call	7720 <__sinit>
    3370:	003fe906 	br	3318 <__alt_data_end+0xff003318>
    3374:	00bfffc4 	movi	r2,-1
    3378:	003ff606 	br	3354 <__alt_data_end+0xff003354>

0000337c <puts>:
    337c:	00800074 	movhi	r2,1
    3380:	108e0904 	addi	r2,r2,14372
    3384:	200b883a 	mov	r5,r4
    3388:	11000017 	ldw	r4,0(r2)
    338c:	00032bc1 	jmpi	32bc <_puts_r>

00003390 <_sbrk_r>:
    3390:	defffd04 	addi	sp,sp,-12
    3394:	dc000015 	stw	r16,0(sp)
    3398:	04000074 	movhi	r16,1
    339c:	dc400115 	stw	r17,4(sp)
    33a0:	84152604 	addi	r16,r16,21656
    33a4:	2023883a 	mov	r17,r4
    33a8:	2809883a 	mov	r4,r5
    33ac:	dfc00215 	stw	ra,8(sp)
    33b0:	80000015 	stw	zero,0(r16)
    33b4:	000ef1c0 	call	ef1c <sbrk>
    33b8:	00ffffc4 	movi	r3,-1
    33bc:	10c00526 	beq	r2,r3,33d4 <_sbrk_r+0x44>
    33c0:	dfc00217 	ldw	ra,8(sp)
    33c4:	dc400117 	ldw	r17,4(sp)
    33c8:	dc000017 	ldw	r16,0(sp)
    33cc:	dec00304 	addi	sp,sp,12
    33d0:	f800283a 	ret
    33d4:	80c00017 	ldw	r3,0(r16)
    33d8:	183ff926 	beq	r3,zero,33c0 <__alt_data_end+0xff0033c0>
    33dc:	88c00015 	stw	r3,0(r17)
    33e0:	003ff706 	br	33c0 <__alt_data_end+0xff0033c0>

000033e4 <strlen>:
    33e4:	208000cc 	andi	r2,r4,3
    33e8:	10002026 	beq	r2,zero,346c <strlen+0x88>
    33ec:	20800007 	ldb	r2,0(r4)
    33f0:	10002026 	beq	r2,zero,3474 <strlen+0x90>
    33f4:	2005883a 	mov	r2,r4
    33f8:	00000206 	br	3404 <strlen+0x20>
    33fc:	10c00007 	ldb	r3,0(r2)
    3400:	18001826 	beq	r3,zero,3464 <strlen+0x80>
    3404:	10800044 	addi	r2,r2,1
    3408:	10c000cc 	andi	r3,r2,3
    340c:	183ffb1e 	bne	r3,zero,33fc <__alt_data_end+0xff0033fc>
    3410:	10c00017 	ldw	r3,0(r2)
    3414:	01ffbff4 	movhi	r7,65279
    3418:	39ffbfc4 	addi	r7,r7,-257
    341c:	00ca303a 	nor	r5,zero,r3
    3420:	01a02074 	movhi	r6,32897
    3424:	19c7883a 	add	r3,r3,r7
    3428:	31a02004 	addi	r6,r6,-32640
    342c:	1946703a 	and	r3,r3,r5
    3430:	1986703a 	and	r3,r3,r6
    3434:	1800091e 	bne	r3,zero,345c <strlen+0x78>
    3438:	10800104 	addi	r2,r2,4
    343c:	10c00017 	ldw	r3,0(r2)
    3440:	19cb883a 	add	r5,r3,r7
    3444:	00c6303a 	nor	r3,zero,r3
    3448:	28c6703a 	and	r3,r5,r3
    344c:	1986703a 	and	r3,r3,r6
    3450:	183ff926 	beq	r3,zero,3438 <__alt_data_end+0xff003438>
    3454:	00000106 	br	345c <strlen+0x78>
    3458:	10800044 	addi	r2,r2,1
    345c:	10c00007 	ldb	r3,0(r2)
    3460:	183ffd1e 	bne	r3,zero,3458 <__alt_data_end+0xff003458>
    3464:	1105c83a 	sub	r2,r2,r4
    3468:	f800283a 	ret
    346c:	2005883a 	mov	r2,r4
    3470:	003fe706 	br	3410 <__alt_data_end+0xff003410>
    3474:	0005883a 	mov	r2,zero
    3478:	f800283a 	ret

0000347c <___vfprintf_internal_r>:
    347c:	deffb804 	addi	sp,sp,-288
    3480:	dfc04715 	stw	ra,284(sp)
    3484:	ddc04515 	stw	r23,276(sp)
    3488:	dd404315 	stw	r21,268(sp)
    348c:	d9002c15 	stw	r4,176(sp)
    3490:	282f883a 	mov	r23,r5
    3494:	302b883a 	mov	r21,r6
    3498:	d9c02d15 	stw	r7,180(sp)
    349c:	df004615 	stw	fp,280(sp)
    34a0:	dd804415 	stw	r22,272(sp)
    34a4:	dd004215 	stw	r20,264(sp)
    34a8:	dcc04115 	stw	r19,260(sp)
    34ac:	dc804015 	stw	r18,256(sp)
    34b0:	dc403f15 	stw	r17,252(sp)
    34b4:	dc003e15 	stw	r16,248(sp)
    34b8:	00082940 	call	8294 <_localeconv_r>
    34bc:	10800017 	ldw	r2,0(r2)
    34c0:	1009883a 	mov	r4,r2
    34c4:	d8803415 	stw	r2,208(sp)
    34c8:	00033e40 	call	33e4 <strlen>
    34cc:	d8803715 	stw	r2,220(sp)
    34d0:	d8802c17 	ldw	r2,176(sp)
    34d4:	10000226 	beq	r2,zero,34e0 <___vfprintf_internal_r+0x64>
    34d8:	10800e17 	ldw	r2,56(r2)
    34dc:	1000f926 	beq	r2,zero,38c4 <___vfprintf_internal_r+0x448>
    34e0:	b880030b 	ldhu	r2,12(r23)
    34e4:	10c8000c 	andi	r3,r2,8192
    34e8:	1800061e 	bne	r3,zero,3504 <___vfprintf_internal_r+0x88>
    34ec:	b9001917 	ldw	r4,100(r23)
    34f0:	00f7ffc4 	movi	r3,-8193
    34f4:	10880014 	ori	r2,r2,8192
    34f8:	20c6703a 	and	r3,r4,r3
    34fc:	b880030d 	sth	r2,12(r23)
    3500:	b8c01915 	stw	r3,100(r23)
    3504:	10c0020c 	andi	r3,r2,8
    3508:	1800c126 	beq	r3,zero,3810 <___vfprintf_internal_r+0x394>
    350c:	b8c00417 	ldw	r3,16(r23)
    3510:	1800bf26 	beq	r3,zero,3810 <___vfprintf_internal_r+0x394>
    3514:	1080068c 	andi	r2,r2,26
    3518:	00c00284 	movi	r3,10
    351c:	10c0c426 	beq	r2,r3,3830 <___vfprintf_internal_r+0x3b4>
    3520:	d8c00404 	addi	r3,sp,16
    3524:	05000074 	movhi	r20,1
    3528:	d9001e04 	addi	r4,sp,120
    352c:	a506ae84 	addi	r20,r20,6842
    3530:	d8c01e15 	stw	r3,120(sp)
    3534:	d8002015 	stw	zero,128(sp)
    3538:	d8001f15 	stw	zero,124(sp)
    353c:	d8003315 	stw	zero,204(sp)
    3540:	d8003615 	stw	zero,216(sp)
    3544:	d8003815 	stw	zero,224(sp)
    3548:	1811883a 	mov	r8,r3
    354c:	d8003915 	stw	zero,228(sp)
    3550:	d8003a15 	stw	zero,232(sp)
    3554:	d8002f15 	stw	zero,188(sp)
    3558:	d9002815 	stw	r4,160(sp)
    355c:	a8800007 	ldb	r2,0(r21)
    3560:	10027b26 	beq	r2,zero,3f50 <___vfprintf_internal_r+0xad4>
    3564:	00c00944 	movi	r3,37
    3568:	a821883a 	mov	r16,r21
    356c:	10c0021e 	bne	r2,r3,3578 <___vfprintf_internal_r+0xfc>
    3570:	00001406 	br	35c4 <___vfprintf_internal_r+0x148>
    3574:	10c00326 	beq	r2,r3,3584 <___vfprintf_internal_r+0x108>
    3578:	84000044 	addi	r16,r16,1
    357c:	80800007 	ldb	r2,0(r16)
    3580:	103ffc1e 	bne	r2,zero,3574 <__alt_data_end+0xff003574>
    3584:	8563c83a 	sub	r17,r16,r21
    3588:	88000e26 	beq	r17,zero,35c4 <___vfprintf_internal_r+0x148>
    358c:	d8c02017 	ldw	r3,128(sp)
    3590:	d8801f17 	ldw	r2,124(sp)
    3594:	45400015 	stw	r21,0(r8)
    3598:	1c47883a 	add	r3,r3,r17
    359c:	10800044 	addi	r2,r2,1
    35a0:	d8c02015 	stw	r3,128(sp)
    35a4:	44400115 	stw	r17,4(r8)
    35a8:	d8801f15 	stw	r2,124(sp)
    35ac:	00c001c4 	movi	r3,7
    35b0:	1880a716 	blt	r3,r2,3850 <___vfprintf_internal_r+0x3d4>
    35b4:	42000204 	addi	r8,r8,8
    35b8:	d9402f17 	ldw	r5,188(sp)
    35bc:	2c4b883a 	add	r5,r5,r17
    35c0:	d9402f15 	stw	r5,188(sp)
    35c4:	80800007 	ldb	r2,0(r16)
    35c8:	1000a826 	beq	r2,zero,386c <___vfprintf_internal_r+0x3f0>
    35cc:	84400047 	ldb	r17,1(r16)
    35d0:	00bfffc4 	movi	r2,-1
    35d4:	85400044 	addi	r21,r16,1
    35d8:	d8002785 	stb	zero,158(sp)
    35dc:	0007883a 	mov	r3,zero
    35e0:	000f883a 	mov	r7,zero
    35e4:	d8802915 	stw	r2,164(sp)
    35e8:	d8003115 	stw	zero,196(sp)
    35ec:	0025883a 	mov	r18,zero
    35f0:	01401604 	movi	r5,88
    35f4:	01800244 	movi	r6,9
    35f8:	02800a84 	movi	r10,42
    35fc:	02401b04 	movi	r9,108
    3600:	ad400044 	addi	r21,r21,1
    3604:	88bff804 	addi	r2,r17,-32
    3608:	28830436 	bltu	r5,r2,421c <___vfprintf_internal_r+0xda0>
    360c:	100490ba 	slli	r2,r2,2
    3610:	01000034 	movhi	r4,0
    3614:	210d8904 	addi	r4,r4,13860
    3618:	1105883a 	add	r2,r2,r4
    361c:	10800017 	ldw	r2,0(r2)
    3620:	1000683a 	jmp	r2
    3624:	0000413c 	xorhi	zero,zero,260
    3628:	0000421c 	xori	zero,zero,264
    362c:	0000421c 	xori	zero,zero,264
    3630:	0000415c 	xori	zero,zero,261
    3634:	0000421c 	xori	zero,zero,264
    3638:	0000421c 	xori	zero,zero,264
    363c:	0000421c 	xori	zero,zero,264
    3640:	0000421c 	xori	zero,zero,264
    3644:	0000421c 	xori	zero,zero,264
    3648:	0000421c 	xori	zero,zero,264
    364c:	000038d0 	cmplti	zero,zero,227
    3650:	00004078 	rdprs	zero,zero,257
    3654:	0000421c 	xori	zero,zero,264
    3658:	00003798 	cmpnei	zero,zero,222
    365c:	000038f8 	rdprs	zero,zero,227
    3660:	0000421c 	xori	zero,zero,264
    3664:	00003938 	rdprs	zero,zero,228
    3668:	00003944 	movi	zero,229
    366c:	00003944 	movi	zero,229
    3670:	00003944 	movi	zero,229
    3674:	00003944 	movi	zero,229
    3678:	00003944 	movi	zero,229
    367c:	00003944 	movi	zero,229
    3680:	00003944 	movi	zero,229
    3684:	00003944 	movi	zero,229
    3688:	00003944 	movi	zero,229
    368c:	0000421c 	xori	zero,zero,264
    3690:	0000421c 	xori	zero,zero,264
    3694:	0000421c 	xori	zero,zero,264
    3698:	0000421c 	xori	zero,zero,264
    369c:	0000421c 	xori	zero,zero,264
    36a0:	0000421c 	xori	zero,zero,264
    36a4:	0000421c 	xori	zero,zero,264
    36a8:	0000421c 	xori	zero,zero,264
    36ac:	0000421c 	xori	zero,zero,264
    36b0:	0000421c 	xori	zero,zero,264
    36b4:	00003978 	rdprs	zero,zero,229
    36b8:	00003a34 	movhi	zero,232
    36bc:	0000421c 	xori	zero,zero,264
    36c0:	00003a34 	movhi	zero,232
    36c4:	0000421c 	xori	zero,zero,264
    36c8:	0000421c 	xori	zero,zero,264
    36cc:	0000421c 	xori	zero,zero,264
    36d0:	0000421c 	xori	zero,zero,264
    36d4:	00003ad4 	movui	zero,235
    36d8:	0000421c 	xori	zero,zero,264
    36dc:	0000421c 	xori	zero,zero,264
    36e0:	00003ae0 	cmpeqi	zero,zero,235
    36e4:	0000421c 	xori	zero,zero,264
    36e8:	0000421c 	xori	zero,zero,264
    36ec:	0000421c 	xori	zero,zero,264
    36f0:	0000421c 	xori	zero,zero,264
    36f4:	0000421c 	xori	zero,zero,264
    36f8:	00003f58 	cmpnei	zero,zero,253
    36fc:	0000421c 	xori	zero,zero,264
    3700:	0000421c 	xori	zero,zero,264
    3704:	00003fb8 	rdprs	zero,zero,254
    3708:	0000421c 	xori	zero,zero,264
    370c:	0000421c 	xori	zero,zero,264
    3710:	0000421c 	xori	zero,zero,264
    3714:	0000421c 	xori	zero,zero,264
    3718:	0000421c 	xori	zero,zero,264
    371c:	0000421c 	xori	zero,zero,264
    3720:	0000421c 	xori	zero,zero,264
    3724:	0000421c 	xori	zero,zero,264
    3728:	0000421c 	xori	zero,zero,264
    372c:	0000421c 	xori	zero,zero,264
    3730:	000041c8 	cmpgei	zero,zero,263
    3734:	00004168 	cmpgeui	zero,zero,261
    3738:	00003a34 	movhi	zero,232
    373c:	00003a34 	movhi	zero,232
    3740:	00003a34 	movhi	zero,232
    3744:	00004178 	rdprs	zero,zero,261
    3748:	00004168 	cmpgeui	zero,zero,261
    374c:	0000421c 	xori	zero,zero,264
    3750:	0000421c 	xori	zero,zero,264
    3754:	00004184 	movi	zero,262
    3758:	0000421c 	xori	zero,zero,264
    375c:	00004194 	movui	zero,262
    3760:	00004068 	cmpgeui	zero,zero,257
    3764:	000037a4 	muli	zero,zero,222
    3768:	00004088 	cmpgei	zero,zero,258
    376c:	0000421c 	xori	zero,zero,264
    3770:	00004094 	movui	zero,258
    3774:	0000421c 	xori	zero,zero,264
    3778:	000040f0 	cmpltui	zero,zero,259
    377c:	0000421c 	xori	zero,zero,264
    3780:	0000421c 	xori	zero,zero,264
    3784:	00004100 	call	410 <init_camera+0x180>
    3788:	d9003117 	ldw	r4,196(sp)
    378c:	d8802d15 	stw	r2,180(sp)
    3790:	0109c83a 	sub	r4,zero,r4
    3794:	d9003115 	stw	r4,196(sp)
    3798:	94800114 	ori	r18,r18,4
    379c:	ac400007 	ldb	r17,0(r21)
    37a0:	003f9706 	br	3600 <__alt_data_end+0xff003600>
    37a4:	00800c04 	movi	r2,48
    37a8:	d9002d17 	ldw	r4,180(sp)
    37ac:	d9402917 	ldw	r5,164(sp)
    37b0:	d8802705 	stb	r2,156(sp)
    37b4:	00801e04 	movi	r2,120
    37b8:	d8802745 	stb	r2,157(sp)
    37bc:	d8002785 	stb	zero,158(sp)
    37c0:	20c00104 	addi	r3,r4,4
    37c4:	24c00017 	ldw	r19,0(r4)
    37c8:	002d883a 	mov	r22,zero
    37cc:	90800094 	ori	r2,r18,2
    37d0:	28029a16 	blt	r5,zero,423c <___vfprintf_internal_r+0xdc0>
    37d4:	00bfdfc4 	movi	r2,-129
    37d8:	90a4703a 	and	r18,r18,r2
    37dc:	d8c02d15 	stw	r3,180(sp)
    37e0:	94800094 	ori	r18,r18,2
    37e4:	9802871e 	bne	r19,zero,4204 <___vfprintf_internal_r+0xd88>
    37e8:	00800074 	movhi	r2,1
    37ec:	1086a704 	addi	r2,r2,6812
    37f0:	d8803915 	stw	r2,228(sp)
    37f4:	04401e04 	movi	r17,120
    37f8:	d8802917 	ldw	r2,164(sp)
    37fc:	0039883a 	mov	fp,zero
    3800:	1001e926 	beq	r2,zero,3fa8 <___vfprintf_internal_r+0xb2c>
    3804:	0027883a 	mov	r19,zero
    3808:	002d883a 	mov	r22,zero
    380c:	00020506 	br	4024 <___vfprintf_internal_r+0xba8>
    3810:	d9002c17 	ldw	r4,176(sp)
    3814:	b80b883a 	mov	r5,r23
    3818:	000574c0 	call	574c <__swsetup_r>
    381c:	1005ac1e 	bne	r2,zero,4ed0 <___vfprintf_internal_r+0x1a54>
    3820:	b880030b 	ldhu	r2,12(r23)
    3824:	00c00284 	movi	r3,10
    3828:	1080068c 	andi	r2,r2,26
    382c:	10ff3c1e 	bne	r2,r3,3520 <__alt_data_end+0xff003520>
    3830:	b880038f 	ldh	r2,14(r23)
    3834:	103f3a16 	blt	r2,zero,3520 <__alt_data_end+0xff003520>
    3838:	d9c02d17 	ldw	r7,180(sp)
    383c:	d9002c17 	ldw	r4,176(sp)
    3840:	a80d883a 	mov	r6,r21
    3844:	b80b883a 	mov	r5,r23
    3848:	00056900 	call	5690 <__sbprintf>
    384c:	00001106 	br	3894 <___vfprintf_internal_r+0x418>
    3850:	d9002c17 	ldw	r4,176(sp)
    3854:	d9801e04 	addi	r6,sp,120
    3858:	b80b883a 	mov	r5,r23
    385c:	000a2180 	call	a218 <__sprint_r>
    3860:	1000081e 	bne	r2,zero,3884 <___vfprintf_internal_r+0x408>
    3864:	da000404 	addi	r8,sp,16
    3868:	003f5306 	br	35b8 <__alt_data_end+0xff0035b8>
    386c:	d8802017 	ldw	r2,128(sp)
    3870:	10000426 	beq	r2,zero,3884 <___vfprintf_internal_r+0x408>
    3874:	d9002c17 	ldw	r4,176(sp)
    3878:	d9801e04 	addi	r6,sp,120
    387c:	b80b883a 	mov	r5,r23
    3880:	000a2180 	call	a218 <__sprint_r>
    3884:	b880030b 	ldhu	r2,12(r23)
    3888:	1080100c 	andi	r2,r2,64
    388c:	1005901e 	bne	r2,zero,4ed0 <___vfprintf_internal_r+0x1a54>
    3890:	d8802f17 	ldw	r2,188(sp)
    3894:	dfc04717 	ldw	ra,284(sp)
    3898:	df004617 	ldw	fp,280(sp)
    389c:	ddc04517 	ldw	r23,276(sp)
    38a0:	dd804417 	ldw	r22,272(sp)
    38a4:	dd404317 	ldw	r21,268(sp)
    38a8:	dd004217 	ldw	r20,264(sp)
    38ac:	dcc04117 	ldw	r19,260(sp)
    38b0:	dc804017 	ldw	r18,256(sp)
    38b4:	dc403f17 	ldw	r17,252(sp)
    38b8:	dc003e17 	ldw	r16,248(sp)
    38bc:	dec04804 	addi	sp,sp,288
    38c0:	f800283a 	ret
    38c4:	d9002c17 	ldw	r4,176(sp)
    38c8:	00077200 	call	7720 <__sinit>
    38cc:	003f0406 	br	34e0 <__alt_data_end+0xff0034e0>
    38d0:	d8802d17 	ldw	r2,180(sp)
    38d4:	d9002d17 	ldw	r4,180(sp)
    38d8:	10800017 	ldw	r2,0(r2)
    38dc:	d8803115 	stw	r2,196(sp)
    38e0:	20800104 	addi	r2,r4,4
    38e4:	d9003117 	ldw	r4,196(sp)
    38e8:	203fa716 	blt	r4,zero,3788 <__alt_data_end+0xff003788>
    38ec:	d8802d15 	stw	r2,180(sp)
    38f0:	ac400007 	ldb	r17,0(r21)
    38f4:	003f4206 	br	3600 <__alt_data_end+0xff003600>
    38f8:	ac400007 	ldb	r17,0(r21)
    38fc:	aac00044 	addi	r11,r21,1
    3900:	8a872826 	beq	r17,r10,55a4 <___vfprintf_internal_r+0x2128>
    3904:	88bff404 	addi	r2,r17,-48
    3908:	0009883a 	mov	r4,zero
    390c:	30867d36 	bltu	r6,r2,5304 <___vfprintf_internal_r+0x1e88>
    3910:	5c400007 	ldb	r17,0(r11)
    3914:	210002a4 	muli	r4,r4,10
    3918:	5d400044 	addi	r21,r11,1
    391c:	a817883a 	mov	r11,r21
    3920:	2089883a 	add	r4,r4,r2
    3924:	88bff404 	addi	r2,r17,-48
    3928:	30bff92e 	bgeu	r6,r2,3910 <__alt_data_end+0xff003910>
    392c:	2005c916 	blt	r4,zero,5054 <___vfprintf_internal_r+0x1bd8>
    3930:	d9002915 	stw	r4,164(sp)
    3934:	003f3306 	br	3604 <__alt_data_end+0xff003604>
    3938:	94802014 	ori	r18,r18,128
    393c:	ac400007 	ldb	r17,0(r21)
    3940:	003f2f06 	br	3600 <__alt_data_end+0xff003600>
    3944:	a809883a 	mov	r4,r21
    3948:	d8003115 	stw	zero,196(sp)
    394c:	88bff404 	addi	r2,r17,-48
    3950:	0017883a 	mov	r11,zero
    3954:	24400007 	ldb	r17,0(r4)
    3958:	5ac002a4 	muli	r11,r11,10
    395c:	ad400044 	addi	r21,r21,1
    3960:	a809883a 	mov	r4,r21
    3964:	12d7883a 	add	r11,r2,r11
    3968:	88bff404 	addi	r2,r17,-48
    396c:	30bff92e 	bgeu	r6,r2,3954 <__alt_data_end+0xff003954>
    3970:	dac03115 	stw	r11,196(sp)
    3974:	003f2306 	br	3604 <__alt_data_end+0xff003604>
    3978:	18c03fcc 	andi	r3,r3,255
    397c:	18072b1e 	bne	r3,zero,562c <___vfprintf_internal_r+0x21b0>
    3980:	94800414 	ori	r18,r18,16
    3984:	9080080c 	andi	r2,r18,32
    3988:	10037b26 	beq	r2,zero,4778 <___vfprintf_internal_r+0x12fc>
    398c:	d9402d17 	ldw	r5,180(sp)
    3990:	28800117 	ldw	r2,4(r5)
    3994:	2cc00017 	ldw	r19,0(r5)
    3998:	29400204 	addi	r5,r5,8
    399c:	d9402d15 	stw	r5,180(sp)
    39a0:	102d883a 	mov	r22,r2
    39a4:	10044b16 	blt	r2,zero,4ad4 <___vfprintf_internal_r+0x1658>
    39a8:	d9402917 	ldw	r5,164(sp)
    39ac:	df002783 	ldbu	fp,158(sp)
    39b0:	2803bc16 	blt	r5,zero,48a4 <___vfprintf_internal_r+0x1428>
    39b4:	00ffdfc4 	movi	r3,-129
    39b8:	9d84b03a 	or	r2,r19,r22
    39bc:	90e4703a 	and	r18,r18,r3
    39c0:	10017726 	beq	r2,zero,3fa0 <___vfprintf_internal_r+0xb24>
    39c4:	b0038326 	beq	r22,zero,47d4 <___vfprintf_internal_r+0x1358>
    39c8:	dc402a15 	stw	r17,168(sp)
    39cc:	dc001e04 	addi	r16,sp,120
    39d0:	b023883a 	mov	r17,r22
    39d4:	402d883a 	mov	r22,r8
    39d8:	9809883a 	mov	r4,r19
    39dc:	880b883a 	mov	r5,r17
    39e0:	01800284 	movi	r6,10
    39e4:	000f883a 	mov	r7,zero
    39e8:	000c6100 	call	c610 <__umoddi3>
    39ec:	10800c04 	addi	r2,r2,48
    39f0:	843fffc4 	addi	r16,r16,-1
    39f4:	9809883a 	mov	r4,r19
    39f8:	880b883a 	mov	r5,r17
    39fc:	80800005 	stb	r2,0(r16)
    3a00:	01800284 	movi	r6,10
    3a04:	000f883a 	mov	r7,zero
    3a08:	000c0980 	call	c098 <__udivdi3>
    3a0c:	1027883a 	mov	r19,r2
    3a10:	10c4b03a 	or	r2,r2,r3
    3a14:	1823883a 	mov	r17,r3
    3a18:	103fef1e 	bne	r2,zero,39d8 <__alt_data_end+0xff0039d8>
    3a1c:	d8c02817 	ldw	r3,160(sp)
    3a20:	dc402a17 	ldw	r17,168(sp)
    3a24:	b011883a 	mov	r8,r22
    3a28:	1c07c83a 	sub	r3,r3,r16
    3a2c:	d8c02e15 	stw	r3,184(sp)
    3a30:	00005906 	br	3b98 <___vfprintf_internal_r+0x71c>
    3a34:	18c03fcc 	andi	r3,r3,255
    3a38:	1806fa1e 	bne	r3,zero,5624 <___vfprintf_internal_r+0x21a8>
    3a3c:	9080020c 	andi	r2,r18,8
    3a40:	10048a26 	beq	r2,zero,4c6c <___vfprintf_internal_r+0x17f0>
    3a44:	d8c02d17 	ldw	r3,180(sp)
    3a48:	d9002d17 	ldw	r4,180(sp)
    3a4c:	d9402d17 	ldw	r5,180(sp)
    3a50:	18c00017 	ldw	r3,0(r3)
    3a54:	21000117 	ldw	r4,4(r4)
    3a58:	29400204 	addi	r5,r5,8
    3a5c:	d8c03615 	stw	r3,216(sp)
    3a60:	d9003815 	stw	r4,224(sp)
    3a64:	d9402d15 	stw	r5,180(sp)
    3a68:	d9003617 	ldw	r4,216(sp)
    3a6c:	d9403817 	ldw	r5,224(sp)
    3a70:	da003d15 	stw	r8,244(sp)
    3a74:	04000044 	movi	r16,1
    3a78:	0009e900 	call	9e90 <__fpclassifyd>
    3a7c:	da003d17 	ldw	r8,244(sp)
    3a80:	14041f1e 	bne	r2,r16,4b00 <___vfprintf_internal_r+0x1684>
    3a84:	d9003617 	ldw	r4,216(sp)
    3a88:	d9403817 	ldw	r5,224(sp)
    3a8c:	000d883a 	mov	r6,zero
    3a90:	000f883a 	mov	r7,zero
    3a94:	000d5580 	call	d558 <__ledf2>
    3a98:	da003d17 	ldw	r8,244(sp)
    3a9c:	1005be16 	blt	r2,zero,5198 <___vfprintf_internal_r+0x1d1c>
    3aa0:	df002783 	ldbu	fp,158(sp)
    3aa4:	008011c4 	movi	r2,71
    3aa8:	1445330e 	bge	r2,r17,4f78 <___vfprintf_internal_r+0x1afc>
    3aac:	04000074 	movhi	r16,1
    3ab0:	84069f04 	addi	r16,r16,6780
    3ab4:	00c000c4 	movi	r3,3
    3ab8:	00bfdfc4 	movi	r2,-129
    3abc:	d8c02a15 	stw	r3,168(sp)
    3ac0:	90a4703a 	and	r18,r18,r2
    3ac4:	d8c02e15 	stw	r3,184(sp)
    3ac8:	d8002915 	stw	zero,164(sp)
    3acc:	d8003215 	stw	zero,200(sp)
    3ad0:	00003706 	br	3bb0 <___vfprintf_internal_r+0x734>
    3ad4:	94800214 	ori	r18,r18,8
    3ad8:	ac400007 	ldb	r17,0(r21)
    3adc:	003ec806 	br	3600 <__alt_data_end+0xff003600>
    3ae0:	18c03fcc 	andi	r3,r3,255
    3ae4:	1806db1e 	bne	r3,zero,5654 <___vfprintf_internal_r+0x21d8>
    3ae8:	94800414 	ori	r18,r18,16
    3aec:	9080080c 	andi	r2,r18,32
    3af0:	1002d826 	beq	r2,zero,4654 <___vfprintf_internal_r+0x11d8>
    3af4:	d9402d17 	ldw	r5,180(sp)
    3af8:	d8c02917 	ldw	r3,164(sp)
    3afc:	d8002785 	stb	zero,158(sp)
    3b00:	28800204 	addi	r2,r5,8
    3b04:	2cc00017 	ldw	r19,0(r5)
    3b08:	2d800117 	ldw	r22,4(r5)
    3b0c:	18048f16 	blt	r3,zero,4d4c <___vfprintf_internal_r+0x18d0>
    3b10:	013fdfc4 	movi	r4,-129
    3b14:	9d86b03a 	or	r3,r19,r22
    3b18:	d8802d15 	stw	r2,180(sp)
    3b1c:	9124703a 	and	r18,r18,r4
    3b20:	1802d91e 	bne	r3,zero,4688 <___vfprintf_internal_r+0x120c>
    3b24:	d8c02917 	ldw	r3,164(sp)
    3b28:	0039883a 	mov	fp,zero
    3b2c:	1805c326 	beq	r3,zero,523c <___vfprintf_internal_r+0x1dc0>
    3b30:	0027883a 	mov	r19,zero
    3b34:	002d883a 	mov	r22,zero
    3b38:	dc001e04 	addi	r16,sp,120
    3b3c:	9806d0fa 	srli	r3,r19,3
    3b40:	b008977a 	slli	r4,r22,29
    3b44:	b02cd0fa 	srli	r22,r22,3
    3b48:	9cc001cc 	andi	r19,r19,7
    3b4c:	98800c04 	addi	r2,r19,48
    3b50:	843fffc4 	addi	r16,r16,-1
    3b54:	20e6b03a 	or	r19,r4,r3
    3b58:	80800005 	stb	r2,0(r16)
    3b5c:	9d86b03a 	or	r3,r19,r22
    3b60:	183ff61e 	bne	r3,zero,3b3c <__alt_data_end+0xff003b3c>
    3b64:	90c0004c 	andi	r3,r18,1
    3b68:	18013b26 	beq	r3,zero,4058 <___vfprintf_internal_r+0xbdc>
    3b6c:	10803fcc 	andi	r2,r2,255
    3b70:	1080201c 	xori	r2,r2,128
    3b74:	10bfe004 	addi	r2,r2,-128
    3b78:	00c00c04 	movi	r3,48
    3b7c:	10c13626 	beq	r2,r3,4058 <___vfprintf_internal_r+0xbdc>
    3b80:	80ffffc5 	stb	r3,-1(r16)
    3b84:	d8c02817 	ldw	r3,160(sp)
    3b88:	80bfffc4 	addi	r2,r16,-1
    3b8c:	1021883a 	mov	r16,r2
    3b90:	1887c83a 	sub	r3,r3,r2
    3b94:	d8c02e15 	stw	r3,184(sp)
    3b98:	d8802e17 	ldw	r2,184(sp)
